
Train.elf:     file format elf32-littlearm

Sections:
Idx Name          Size      VMA       LMA       File off  Algn
  0 .isr_vector   000000c0  08000000  08000000  00010000  2**0
                  CONTENTS, ALLOC, LOAD, READONLY, DATA
  1 .text         000017b4  080000c0  080000c0  000100c0  2**2
                  CONTENTS, ALLOC, LOAD, READONLY, CODE
  2 .rodata       00000000  08001874  08001874  00020004  2**0
                  CONTENTS, ALLOC, LOAD, DATA
  3 .ARM.extab    00000000  08001874  08001874  00020004  2**0
                  CONTENTS
  4 .ARM          00000000  08001874  08001874  00020004  2**0
                  CONTENTS
  5 .preinit_array 00000000  08001874  08001874  00020004  2**0
                  CONTENTS, ALLOC, LOAD, DATA
  6 .init_array   00000004  08001874  08001874  00011874  2**2
                  CONTENTS, ALLOC, LOAD, DATA
  7 .fini_array   00000004  08001878  08001878  00011878  2**2
                  CONTENTS, ALLOC, LOAD, DATA
  8 .data         00000004  20000000  0800187c  00020000  2**0
                  CONTENTS, ALLOC, LOAD, DATA
  9 .bss          000000a0  20000004  08001880  00020004  2**2
                  ALLOC
 10 ._user_heap_stack 00000604  200000a4  08001880  000200a4  2**0
                  ALLOC
 11 .ARM.attributes 00000028  00000000  00000000  00020004  2**0
                  CONTENTS, READONLY
 12 .debug_info   00001ed8  00000000  00000000  0002002c  2**0
                  CONTENTS, READONLY, DEBUGGING, OCTETS
 13 .debug_abbrev 00000674  00000000  00000000  00021f04  2**0
                  CONTENTS, READONLY, DEBUGGING, OCTETS
 14 .debug_aranges 00000250  00000000  00000000  00022578  2**3
                  CONTENTS, READONLY, DEBUGGING, OCTETS
 15 .debug_ranges 00000208  00000000  00000000  000227c8  2**3
                  CONTENTS, READONLY, DEBUGGING, OCTETS
 16 .debug_macro  00001652  00000000  00000000  000229d0  2**0
                  CONTENTS, READONLY, DEBUGGING, OCTETS
 17 .debug_line   0000234f  00000000  00000000  00024022  2**0
                  CONTENTS, READONLY, DEBUGGING, OCTETS
 18 .debug_str    0000a19b  00000000  00000000  00026371  2**0
                  CONTENTS, READONLY, DEBUGGING, OCTETS
 19 .comment      00000050  00000000  00000000  0003050c  2**0
                  CONTENTS, READONLY
 20 .debug_frame  0000079c  00000000  00000000  0003055c  2**2
                  CONTENTS, READONLY, DEBUGGING, OCTETS

Disassembly of section .text:

080000c0 <__do_global_dtors_aux>:
 80000c0:	b510      	push	{r4, lr}
 80000c2:	4c06      	ldr	r4, [pc, #24]	; (80000dc <__do_global_dtors_aux+0x1c>)
 80000c4:	7823      	ldrb	r3, [r4, #0]
 80000c6:	2b00      	cmp	r3, #0
 80000c8:	d107      	bne.n	80000da <__do_global_dtors_aux+0x1a>
 80000ca:	4b05      	ldr	r3, [pc, #20]	; (80000e0 <__do_global_dtors_aux+0x20>)
 80000cc:	2b00      	cmp	r3, #0
 80000ce:	d002      	beq.n	80000d6 <__do_global_dtors_aux+0x16>
 80000d0:	4804      	ldr	r0, [pc, #16]	; (80000e4 <__do_global_dtors_aux+0x24>)
 80000d2:	e000      	b.n	80000d6 <__do_global_dtors_aux+0x16>
 80000d4:	bf00      	nop
 80000d6:	2301      	movs	r3, #1
 80000d8:	7023      	strb	r3, [r4, #0]
 80000da:	bd10      	pop	{r4, pc}
 80000dc:	20000004 	.word	0x20000004
 80000e0:	00000000 	.word	0x00000000
 80000e4:	0800185c 	.word	0x0800185c

080000e8 <frame_dummy>:
 80000e8:	4b04      	ldr	r3, [pc, #16]	; (80000fc <frame_dummy+0x14>)
 80000ea:	b510      	push	{r4, lr}
 80000ec:	2b00      	cmp	r3, #0
 80000ee:	d003      	beq.n	80000f8 <frame_dummy+0x10>
 80000f0:	4903      	ldr	r1, [pc, #12]	; (8000100 <frame_dummy+0x18>)
 80000f2:	4804      	ldr	r0, [pc, #16]	; (8000104 <frame_dummy+0x1c>)
 80000f4:	e000      	b.n	80000f8 <frame_dummy+0x10>
 80000f6:	bf00      	nop
 80000f8:	bd10      	pop	{r4, pc}
 80000fa:	46c0      	nop			; (mov r8, r8)
 80000fc:	00000000 	.word	0x00000000
 8000100:	20000008 	.word	0x20000008
 8000104:	0800185c 	.word	0x0800185c

08000108 <delay>:
	}
	return length;
}

void delay(void)
{
 8000108:	b580      	push	{r7, lr}
 800010a:	b082      	sub	sp, #8
 800010c:	af00      	add	r7, sp, #0
	// some delay for the debouncing of the buttons
	for(uint32_t i = 0 ; i < 1000000/2 ; i ++);//300000/2 working in old PC. in new PC, so far 1000000/2 mostly
 800010e:	2300      	movs	r3, #0
 8000110:	607b      	str	r3, [r7, #4]
 8000112:	e002      	b.n	800011a <delay+0x12>
 8000114:	687b      	ldr	r3, [r7, #4]
 8000116:	3301      	adds	r3, #1
 8000118:	607b      	str	r3, [r7, #4]
 800011a:	687b      	ldr	r3, [r7, #4]
 800011c:	4a03      	ldr	r2, [pc, #12]	; (800012c <delay+0x24>)
 800011e:	4293      	cmp	r3, r2
 8000120:	d9f8      	bls.n	8000114 <delay+0xc>
}
 8000122:	46c0      	nop			; (mov r8, r8)
 8000124:	46c0      	nop			; (mov r8, r8)
 8000126:	46bd      	mov	sp, r7
 8000128:	b002      	add	sp, #8
 800012a:	bd80      	pop	{r7, pc}
 800012c:	0007a11f 	.word	0x0007a11f

08000130 <main>:
//configure ADS1115 registers
void configureADS1115(I2C_Handle_t *pI2Chandle);

/**********************************************START MAIN********************************************************************/
int main(void)
{
 8000130:	b580      	push	{r7, lr}
 8000132:	af00      	add	r7, sp, #0
	//initialise_monitor_handles(); //for debugging in IDE
	//printf("THIS STARTS\n");


	//initialize structures to 0 to avoid garbage values
	memset(&buttons,0,sizeof(buttons));
 8000134:	4b2a      	ldr	r3, [pc, #168]	; (80001e0 <main+0xb0>)
 8000136:	220c      	movs	r2, #12
 8000138:	2100      	movs	r1, #0
 800013a:	0018      	movs	r0, r3
 800013c:	f001 fb86 	bl	800184c <memset>
	memset(&leds,0,sizeof(leds));
 8000140:	4b28      	ldr	r3, [pc, #160]	; (80001e4 <main+0xb4>)
 8000142:	220c      	movs	r2, #12
 8000144:	2100      	movs	r1, #0
 8000146:	0018      	movs	r0, r3
 8000148:	f001 fb80 	bl	800184c <memset>

	/*GPIOs for the SPI handled by spiGPIO -->SPI1 PA4:NSS PA4:SCK PA4:MISO PA4:MOSI. sp1 is the handle for SPI1*/
	memset(&spiGPIOs,0,sizeof(spiGPIOs));
 800014c:	4b26      	ldr	r3, [pc, #152]	; (80001e8 <main+0xb8>)
 800014e:	220c      	movs	r2, #12
 8000150:	2100      	movs	r1, #0
 8000152:	0018      	movs	r0, r3
 8000154:	f001 fb7a 	bl	800184c <memset>
	memset(&spi1,0,sizeof(spi1));
 8000158:	4b24      	ldr	r3, [pc, #144]	; (80001ec <main+0xbc>)
 800015a:	2224      	movs	r2, #36	; 0x24
 800015c:	2100      	movs	r1, #0
 800015e:	0018      	movs	r0, r3
 8000160:	f001 fb74 	bl	800184c <memset>

	/*GPIOs for the I2C handled by i2cGPIOs. i2c1 is the handle for I2C1*/
	memset(&i2cGPIOs,0,sizeof(i2cGPIOs));
 8000164:	4b22      	ldr	r3, [pc, #136]	; (80001f0 <main+0xc0>)
 8000166:	220c      	movs	r2, #12
 8000168:	2100      	movs	r1, #0
 800016a:	0018      	movs	r0, r3
 800016c:	f001 fb6e 	bl	800184c <memset>
	memset(&i2c1,0,sizeof(i2c1));
 8000170:	4b20      	ldr	r3, [pc, #128]	; (80001f4 <main+0xc4>)
 8000172:	2224      	movs	r2, #36	; 0x24
 8000174:	2100      	movs	r1, #0
 8000176:	0018      	movs	r0, r3
 8000178:	f001 fb68 	bl	800184c <memset>

	//Configurations and initilizations
	peripheral_Config_Ini();
 800017c:	f000 f940 	bl	8000400 <peripheral_Config_Ini>

	/*configure interrupts (without priorities atm)*/
	//Button OnOff (GPIOB0)
	GPIO_IRQ_EnableDisable(IRQ_EXTI2_3, ENABLE);
 8000180:	2101      	movs	r1, #1
 8000182:	2006      	movs	r0, #6
 8000184:	f000 fd48 	bl	8000c18 <GPIO_IRQ_EnableDisable>
	//Button Emergency (GPIOB2)
	GPIO_IRQ_EnableDisable(IRQ_EXTI4_15, ENABLE);
 8000188:	2101      	movs	r1, #1
 800018a:	2007      	movs	r0, #7
 800018c:	f000 fd44 	bl	8000c18 <GPIO_IRQ_EnableDisable>
	//SPI1
	SPI_IRQ_EnableDisable(IRQ_SPI1, ENABLE);
 8000190:	2101      	movs	r1, #1
 8000192:	2019      	movs	r0, #25
 8000194:	f001 fa1a 	bl	80015cc <SPI_IRQ_EnableDisable>
	//I2C1
	I2C_IRQ_EnableDisable(IRQ_I2C1, ENABLE);
 8000198:	2101      	movs	r1, #1
 800019a:	2017      	movs	r0, #23
 800019c:	f000 fe08 	bl	8000db0 <I2C_IRQ_EnableDisable>
				//error. print it in semihosting
				break;

			}
		}*/
		if (restart || (flagADS1115 != ADS1115_NOT_STARTED)){
 80001a0:	4b15      	ldr	r3, [pc, #84]	; (80001f8 <main+0xc8>)
 80001a2:	781b      	ldrb	r3, [r3, #0]
 80001a4:	2b00      	cmp	r3, #0
 80001a6:	d103      	bne.n	80001b0 <main+0x80>
 80001a8:	4b14      	ldr	r3, [pc, #80]	; (80001fc <main+0xcc>)
 80001aa:	781b      	ldrb	r3, [r3, #0]
 80001ac:	2b00      	cmp	r3, #0
 80001ae:	d0f7      	beq.n	80001a0 <main+0x70>
			restart = 0;
 80001b0:	4b11      	ldr	r3, [pc, #68]	; (80001f8 <main+0xc8>)
 80001b2:	2200      	movs	r2, #0
 80001b4:	701a      	strb	r2, [r3, #0]
			configureADS1115(&i2c1);
 80001b6:	4b0f      	ldr	r3, [pc, #60]	; (80001f4 <main+0xc4>)
 80001b8:	0018      	movs	r0, r3
 80001ba:	f000 fa55 	bl	8000668 <configureADS1115>
			if (flagADS1115 == ADS1115_CONFIGURED){
 80001be:	4b0f      	ldr	r3, [pc, #60]	; (80001fc <main+0xcc>)
 80001c0:	781b      	ldrb	r3, [r3, #0]
 80001c2:	2b04      	cmp	r3, #4
 80001c4:	d1ec      	bne.n	80001a0 <main+0x70>
				I2C_EnableDisable(&i2c1,ENABLE);
 80001c6:	4b0b      	ldr	r3, [pc, #44]	; (80001f4 <main+0xc4>)
 80001c8:	2101      	movs	r1, #1
 80001ca:	0018      	movs	r0, r3
 80001cc:	f000 fdcc 	bl	8000d68 <I2C_EnableDisable>
				I2C_Master_Receiver(&i2c1, ADS1115_CONVERSION_REGISTER_BYTES, 1);//1st byte read(MSB of Conversion register)+2nd byte read(LSB)
 80001d0:	4b08      	ldr	r3, [pc, #32]	; (80001f4 <main+0xc4>)
 80001d2:	2201      	movs	r2, #1
 80001d4:	2102      	movs	r1, #2
 80001d6:	0018      	movs	r0, r3
 80001d8:	f000 ff3e 	bl	8001058 <I2C_Master_Receiver>
		if (restart || (flagADS1115 != ADS1115_NOT_STARTED)){
 80001dc:	e7e0      	b.n	80001a0 <main+0x70>
 80001de:	46c0      	nop			; (mov r8, r8)
 80001e0:	20000020 	.word	0x20000020
 80001e4:	2000002c 	.word	0x2000002c
 80001e8:	20000038 	.word	0x20000038
 80001ec:	20000050 	.word	0x20000050
 80001f0:	20000044 	.word	0x20000044
 80001f4:	20000074 	.word	0x20000074
 80001f8:	20000000 	.word	0x20000000
 80001fc:	200000a3 	.word	0x200000a3

08000200 <EXTI2_3_IRQHandler>:
	}
}
/**********************************************END MAIN********************************************************************/

/***********************************************ISR handlers****************************************************************/
void EXTI2_3_IRQHandler(void){ //when button on-off
 8000200:	b580      	push	{r7, lr}
 8000202:	af00      	add	r7, sp, #0
	delay();
 8000204:	f7ff ff80 	bl	8000108 <delay>
	GPIO_IRQ_Handling(PIN_BUTTON_OFFON);
 8000208:	2003      	movs	r0, #3
 800020a:	f000 fd31 	bl	8000c70 <GPIO_IRQ_Handling>
	if (currentState == OFF){
 800020e:	4b26      	ldr	r3, [pc, #152]	; (80002a8 <EXTI2_3_IRQHandler+0xa8>)
 8000210:	781b      	ldrb	r3, [r3, #0]
 8000212:	2b00      	cmp	r3, #0
 8000214:	d122      	bne.n	800025c <EXTI2_3_IRQHandler+0x5c>
		currentState = ON;
 8000216:	4b24      	ldr	r3, [pc, #144]	; (80002a8 <EXTI2_3_IRQHandler+0xa8>)
 8000218:	2201      	movs	r2, #1
 800021a:	701a      	strb	r2, [r3, #0]
		stateChanged = 1;
 800021c:	4b23      	ldr	r3, [pc, #140]	; (80002ac <EXTI2_3_IRQHandler+0xac>)
 800021e:	2201      	movs	r2, #1
 8000220:	701a      	strb	r2, [r3, #0]
		GPIO_WritePin(GPIOA,PIN_LED0,0);
 8000222:	2390      	movs	r3, #144	; 0x90
 8000224:	05db      	lsls	r3, r3, #23
 8000226:	2200      	movs	r2, #0
 8000228:	2100      	movs	r1, #0
 800022a:	0018      	movs	r0, r3
 800022c:	f000 fcca 	bl	8000bc4 <GPIO_WritePin>
		GPIO_WritePin(GPIOA,PIN_LED1,1);
 8000230:	2390      	movs	r3, #144	; 0x90
 8000232:	05db      	lsls	r3, r3, #23
 8000234:	2201      	movs	r2, #1
 8000236:	2101      	movs	r1, #1
 8000238:	0018      	movs	r0, r3
 800023a:	f000 fcc3 	bl	8000bc4 <GPIO_WritePin>
		GPIO_WritePin(GPIOA,PIN_LED2,1);
 800023e:	2390      	movs	r3, #144	; 0x90
 8000240:	05db      	lsls	r3, r3, #23
 8000242:	2201      	movs	r2, #1
 8000244:	2109      	movs	r1, #9
 8000246:	0018      	movs	r0, r3
 8000248:	f000 fcbc 	bl	8000bc4 <GPIO_WritePin>
		GPIO_WritePin(GPIOA,PIN_LED3,0);
 800024c:	2390      	movs	r3, #144	; 0x90
 800024e:	05db      	lsls	r3, r3, #23
 8000250:	2200      	movs	r2, #0
 8000252:	210a      	movs	r1, #10
 8000254:	0018      	movs	r0, r3
 8000256:	f000 fcb5 	bl	8000bc4 <GPIO_WritePin>
		GPIO_WritePin(GPIOA,PIN_LED1,0);
		GPIO_WritePin(GPIOA,PIN_LED2,0);
		GPIO_WritePin(GPIOA,PIN_LED3,0);
	}
	//printf("%d\n",currentState);
}
 800025a:	e021      	b.n	80002a0 <EXTI2_3_IRQHandler+0xa0>
		currentState = OFF;
 800025c:	4b12      	ldr	r3, [pc, #72]	; (80002a8 <EXTI2_3_IRQHandler+0xa8>)
 800025e:	2200      	movs	r2, #0
 8000260:	701a      	strb	r2, [r3, #0]
		stateChanged = 1;
 8000262:	4b12      	ldr	r3, [pc, #72]	; (80002ac <EXTI2_3_IRQHandler+0xac>)
 8000264:	2201      	movs	r2, #1
 8000266:	701a      	strb	r2, [r3, #0]
		GPIO_WritePin(GPIOA,PIN_LED0,0);
 8000268:	2390      	movs	r3, #144	; 0x90
 800026a:	05db      	lsls	r3, r3, #23
 800026c:	2200      	movs	r2, #0
 800026e:	2100      	movs	r1, #0
 8000270:	0018      	movs	r0, r3
 8000272:	f000 fca7 	bl	8000bc4 <GPIO_WritePin>
		GPIO_WritePin(GPIOA,PIN_LED1,0);
 8000276:	2390      	movs	r3, #144	; 0x90
 8000278:	05db      	lsls	r3, r3, #23
 800027a:	2200      	movs	r2, #0
 800027c:	2101      	movs	r1, #1
 800027e:	0018      	movs	r0, r3
 8000280:	f000 fca0 	bl	8000bc4 <GPIO_WritePin>
		GPIO_WritePin(GPIOA,PIN_LED2,0);
 8000284:	2390      	movs	r3, #144	; 0x90
 8000286:	05db      	lsls	r3, r3, #23
 8000288:	2200      	movs	r2, #0
 800028a:	2109      	movs	r1, #9
 800028c:	0018      	movs	r0, r3
 800028e:	f000 fc99 	bl	8000bc4 <GPIO_WritePin>
		GPIO_WritePin(GPIOA,PIN_LED3,0);
 8000292:	2390      	movs	r3, #144	; 0x90
 8000294:	05db      	lsls	r3, r3, #23
 8000296:	2200      	movs	r2, #0
 8000298:	210a      	movs	r1, #10
 800029a:	0018      	movs	r0, r3
 800029c:	f000 fc92 	bl	8000bc4 <GPIO_WritePin>
}
 80002a0:	46c0      	nop			; (mov r8, r8)
 80002a2:	46bd      	mov	sp, r7
 80002a4:	bd80      	pop	{r7, pc}
 80002a6:	46c0      	nop			; (mov r8, r8)
 80002a8:	20000098 	.word	0x20000098
 80002ac:	20000099 	.word	0x20000099

080002b0 <EXTI4_15_IRQHandler>:

void EXTI4_15_IRQHandler(void){
 80002b0:	b580      	push	{r7, lr}
 80002b2:	af00      	add	r7, sp, #0
	delay();
 80002b4:	f7ff ff28 	bl	8000108 <delay>
	GPIO_IRQ_Handling(PIN_BUTTON_EMERGENCY);
 80002b8:	2005      	movs	r0, #5
 80002ba:	f000 fcd9 	bl	8000c70 <GPIO_IRQ_Handling>
	if (currentState != EMERGENCY){
 80002be:	4b14      	ldr	r3, [pc, #80]	; (8000310 <EXTI4_15_IRQHandler+0x60>)
 80002c0:	781b      	ldrb	r3, [r3, #0]
 80002c2:	2b02      	cmp	r3, #2
 80002c4:	d002      	beq.n	80002cc <EXTI4_15_IRQHandler+0x1c>
		stateChanged = 1;
 80002c6:	4b13      	ldr	r3, [pc, #76]	; (8000314 <EXTI4_15_IRQHandler+0x64>)
 80002c8:	2201      	movs	r2, #1
 80002ca:	701a      	strb	r2, [r3, #0]
	}
	currentState = EMERGENCY;
 80002cc:	4b10      	ldr	r3, [pc, #64]	; (8000310 <EXTI4_15_IRQHandler+0x60>)
 80002ce:	2202      	movs	r2, #2
 80002d0:	701a      	strb	r2, [r3, #0]
	//printf("%d\n",currentState);
	GPIO_WritePin(GPIOA,PIN_LED0,1);
 80002d2:	2390      	movs	r3, #144	; 0x90
 80002d4:	05db      	lsls	r3, r3, #23
 80002d6:	2201      	movs	r2, #1
 80002d8:	2100      	movs	r1, #0
 80002da:	0018      	movs	r0, r3
 80002dc:	f000 fc72 	bl	8000bc4 <GPIO_WritePin>
	GPIO_WritePin(GPIOA,PIN_LED1,1);
 80002e0:	2390      	movs	r3, #144	; 0x90
 80002e2:	05db      	lsls	r3, r3, #23
 80002e4:	2201      	movs	r2, #1
 80002e6:	2101      	movs	r1, #1
 80002e8:	0018      	movs	r0, r3
 80002ea:	f000 fc6b 	bl	8000bc4 <GPIO_WritePin>
	GPIO_WritePin(GPIOA,PIN_LED2,1);
 80002ee:	2390      	movs	r3, #144	; 0x90
 80002f0:	05db      	lsls	r3, r3, #23
 80002f2:	2201      	movs	r2, #1
 80002f4:	2109      	movs	r1, #9
 80002f6:	0018      	movs	r0, r3
 80002f8:	f000 fc64 	bl	8000bc4 <GPIO_WritePin>
	GPIO_WritePin(GPIOA,PIN_LED3,1);
 80002fc:	2390      	movs	r3, #144	; 0x90
 80002fe:	05db      	lsls	r3, r3, #23
 8000300:	2201      	movs	r2, #1
 8000302:	210a      	movs	r1, #10
 8000304:	0018      	movs	r0, r3
 8000306:	f000 fc5d 	bl	8000bc4 <GPIO_WritePin>

}
 800030a:	46c0      	nop			; (mov r8, r8)
 800030c:	46bd      	mov	sp, r7
 800030e:	bd80      	pop	{r7, pc}
 8000310:	20000098 	.word	0x20000098
 8000314:	20000099 	.word	0x20000099

08000318 <SPI1_IRQHandler>:

//SPI IRQ handler for SPI1. declared in startup_stm32f091rctx.s
void SPI1_IRQHandler(void){
 8000318:	b580      	push	{r7, lr}
 800031a:	af00      	add	r7, sp, #0
	SPI_IRQ_Handling(&spi1);
 800031c:	4b03      	ldr	r3, [pc, #12]	; (800032c <SPI1_IRQHandler+0x14>)
 800031e:	0018      	movs	r0, r3
 8000320:	f001 f980 	bl	8001624 <SPI_IRQ_Handling>
}
 8000324:	46c0      	nop			; (mov r8, r8)
 8000326:	46bd      	mov	sp, r7
 8000328:	bd80      	pop	{r7, pc}
 800032a:	46c0      	nop			; (mov r8, r8)
 800032c:	20000050 	.word	0x20000050

08000330 <I2C1_IRQHandler>:
	//NOT NECESSARY SO FAR BECAUSE I'M USING if WITH RX/TX STATE == READY (it's volatile)
}*/

//I2C
//I2C1 IRQ handler, from startup_stm32f091rctx.s
void I2C1_IRQHandler(void){
 8000330:	b580      	push	{r7, lr}
 8000332:	af00      	add	r7, sp, #0
	I2C_IRQ_Handling(&i2c1);
 8000334:	4b03      	ldr	r3, [pc, #12]	; (8000344 <I2C1_IRQHandler+0x14>)
 8000336:	0018      	movs	r0, r3
 8000338:	f000 fd66 	bl	8000e08 <I2C_IRQ_Handling>
}
 800033c:	46c0      	nop			; (mov r8, r8)
 800033e:	46bd      	mov	sp, r7
 8000340:	bd80      	pop	{r7, pc}
 8000342:	46c0      	nop			; (mov r8, r8)
 8000344:	20000074 	.word	0x20000074

08000348 <I2C_App_Callback>:
//callback
void I2C_App_Callback(I2C_Handle_t *pI2Chandle,uint8_t Event){
 8000348:	b580      	push	{r7, lr}
 800034a:	b082      	sub	sp, #8
 800034c:	af00      	add	r7, sp, #0
 800034e:	6078      	str	r0, [r7, #4]
 8000350:	000a      	movs	r2, r1
 8000352:	1cfb      	adds	r3, r7, #3
 8000354:	701a      	strb	r2, [r3, #0]
	if (Event == I2C_NEW_READING){ //new value from the external ADC (temperature sensor)
 8000356:	1cfb      	adds	r3, r7, #3
 8000358:	781b      	ldrb	r3, [r3, #0]
 800035a:	2b04      	cmp	r3, #4
 800035c:	d10f      	bne.n	800037e <I2C_App_Callback+0x36>
		byteRead = *(pI2Chandle->I2C_Comm_t.RX_buffer);
 800035e:	687b      	ldr	r3, [r7, #4]
 8000360:	699b      	ldr	r3, [r3, #24]
 8000362:	781a      	ldrb	r2, [r3, #0]
 8000364:	4b20      	ldr	r3, [pc, #128]	; (80003e8 <I2C_App_Callback+0xa0>)
 8000366:	701a      	strb	r2, [r3, #0]
		if (!boolFirstByteRead){
 8000368:	4b20      	ldr	r3, [pc, #128]	; (80003ec <I2C_App_Callback+0xa4>)
 800036a:	781b      	ldrb	r3, [r3, #0]
 800036c:	2b00      	cmp	r3, #0
 800036e:	d106      	bne.n	800037e <I2C_App_Callback+0x36>
			boolFirstByteRead = 1; //first byte read from ADS1115 (MSB)
 8000370:	4b1e      	ldr	r3, [pc, #120]	; (80003ec <I2C_App_Callback+0xa4>)
 8000372:	2201      	movs	r2, #1
 8000374:	701a      	strb	r2, [r3, #0]
			firstByteRead = byteRead;
 8000376:	4b1c      	ldr	r3, [pc, #112]	; (80003e8 <I2C_App_Callback+0xa0>)
 8000378:	781a      	ldrb	r2, [r3, #0]
 800037a:	4b1d      	ldr	r3, [pc, #116]	; (80003f0 <I2C_App_Callback+0xa8>)
 800037c:	701a      	strb	r2, [r3, #0]
		}
	}
	if ((Event == I2C_RESTART_STOP) || (Event == I2C_FINISHED)){
 800037e:	1cfb      	adds	r3, r7, #3
 8000380:	781b      	ldrb	r3, [r3, #0]
 8000382:	2b04      	cmp	r3, #4
 8000384:	d003      	beq.n	800038e <I2C_App_Callback+0x46>
 8000386:	1cfb      	adds	r3, r7, #3
 8000388:	781b      	ldrb	r3, [r3, #0]
 800038a:	2b02      	cmp	r3, #2
 800038c:	d128      	bne.n	80003e0 <I2C_App_Callback+0x98>
		//if ADS1115 not configured yet,focus on that:
		if (flagADS1115 != ADS1115_CONFIGURED){
 800038e:	4b19      	ldr	r3, [pc, #100]	; (80003f4 <I2C_App_Callback+0xac>)
 8000390:	781b      	ldrb	r3, [r3, #0]
 8000392:	2b04      	cmp	r3, #4
 8000394:	d00e      	beq.n	80003b4 <I2C_App_Callback+0x6c>
			switch (flagADS1115){
 8000396:	4b17      	ldr	r3, [pc, #92]	; (80003f4 <I2C_App_Callback+0xac>)
 8000398:	781b      	ldrb	r3, [r3, #0]
 800039a:	2b01      	cmp	r3, #1
 800039c:	d002      	beq.n	80003a4 <I2C_App_Callback+0x5c>
 800039e:	2b03      	cmp	r3, #3
 80003a0:	d004      	beq.n	80003ac <I2C_App_Callback+0x64>
			case ADS1115_2ND_DURING:
				flagADS1115 = ADS1115_CONFIGURED;
				break;

			default:
				break;
 80003a2:	e01d      	b.n	80003e0 <I2C_App_Callback+0x98>
				flagADS1115 = ADS1115_1ST_DONE;
 80003a4:	4b13      	ldr	r3, [pc, #76]	; (80003f4 <I2C_App_Callback+0xac>)
 80003a6:	2202      	movs	r2, #2
 80003a8:	701a      	strb	r2, [r3, #0]
				break;
 80003aa:	e019      	b.n	80003e0 <I2C_App_Callback+0x98>
				flagADS1115 = ADS1115_CONFIGURED;
 80003ac:	4b11      	ldr	r3, [pc, #68]	; (80003f4 <I2C_App_Callback+0xac>)
 80003ae:	2204      	movs	r2, #4
 80003b0:	701a      	strb	r2, [r3, #0]
				break;
 80003b2:	e015      	b.n	80003e0 <I2C_App_Callback+0x98>
			}
		}
		else{ //if ADS1115 has already been configured, finish reading the ADC value
			restart = 1;
 80003b4:	4b10      	ldr	r3, [pc, #64]	; (80003f8 <I2C_App_Callback+0xb0>)
 80003b6:	2201      	movs	r2, #1
 80003b8:	701a      	strb	r2, [r3, #0]
			lastADS1115_raw = (firstByteRead<<8)|byteRead; //byteRead is LSB and firstByteRead is MSB
 80003ba:	4b0d      	ldr	r3, [pc, #52]	; (80003f0 <I2C_App_Callback+0xa8>)
 80003bc:	781b      	ldrb	r3, [r3, #0]
 80003be:	021b      	lsls	r3, r3, #8
 80003c0:	b21a      	sxth	r2, r3
 80003c2:	4b09      	ldr	r3, [pc, #36]	; (80003e8 <I2C_App_Callback+0xa0>)
 80003c4:	781b      	ldrb	r3, [r3, #0]
 80003c6:	b21b      	sxth	r3, r3
 80003c8:	4313      	orrs	r3, r2
 80003ca:	b21b      	sxth	r3, r3
 80003cc:	b29a      	uxth	r2, r3
 80003ce:	4b0b      	ldr	r3, [pc, #44]	; (80003fc <I2C_App_Callback+0xb4>)
 80003d0:	801a      	strh	r2, [r3, #0]
			boolFirstByteRead = 0; //because next reading will be the first byte to be read from ADS1115
 80003d2:	4b06      	ldr	r3, [pc, #24]	; (80003ec <I2C_App_Callback+0xa4>)
 80003d4:	2200      	movs	r2, #0
 80003d6:	701a      	strb	r2, [r3, #0]
			flagADS1115 = ADS1115_NOT_STARTED;
 80003d8:	4b06      	ldr	r3, [pc, #24]	; (80003f4 <I2C_App_Callback+0xac>)
 80003da:	2200      	movs	r2, #0
 80003dc:	701a      	strb	r2, [r3, #0]
		}


	}

}
 80003de:	e7ff      	b.n	80003e0 <I2C_App_Callback+0x98>
 80003e0:	46c0      	nop			; (mov r8, r8)
 80003e2:	46bd      	mov	sp, r7
 80003e4:	b002      	add	sp, #8
 80003e6:	bd80      	pop	{r7, pc}
 80003e8:	2000009a 	.word	0x2000009a
 80003ec:	2000009c 	.word	0x2000009c
 80003f0:	2000009b 	.word	0x2000009b
 80003f4:	200000a3 	.word	0x200000a3
 80003f8:	20000000 	.word	0x20000000
 80003fc:	2000009e 	.word	0x2000009e

08000400 <peripheral_Config_Ini>:
/**********************************************END IRQ********************************************************************/

/*****************************Configurations and initializations************************************************************/
void peripheral_Config_Ini(void){
 8000400:	b590      	push	{r4, r7, lr}
 8000402:	b085      	sub	sp, #20
 8000404:	af02      	add	r7, sp, #8

	//local variables
	uint8_t param1, param2, param3, param4, param5;
	/**********************LEDS***********************************************/
	//LED0. PA0
	leds.pGPIO = GPIOA;
 8000406:	4b8f      	ldr	r3, [pc, #572]	; (8000644 <peripheral_Config_Ini+0x244>)
 8000408:	2290      	movs	r2, #144	; 0x90
 800040a:	05d2      	lsls	r2, r2, #23
 800040c:	601a      	str	r2, [r3, #0]
	leds.GPIO_PinConfig.GPIO_PinNumber = PIN_LED0;
 800040e:	4b8d      	ldr	r3, [pc, #564]	; (8000644 <peripheral_Config_Ini+0x244>)
 8000410:	2200      	movs	r2, #0
 8000412:	711a      	strb	r2, [r3, #4]
	leds.GPIO_PinConfig.GPIO_PinMode = GPIO_OUT;
 8000414:	4b8b      	ldr	r3, [pc, #556]	; (8000644 <peripheral_Config_Ini+0x244>)
 8000416:	2201      	movs	r2, #1
 8000418:	715a      	strb	r2, [r3, #5]
	leds.GPIO_PinConfig.GPIO_PinOutType = GPIO_PUSHPULL;
 800041a:	4b8a      	ldr	r3, [pc, #552]	; (8000644 <peripheral_Config_Ini+0x244>)
 800041c:	2200      	movs	r2, #0
 800041e:	719a      	strb	r2, [r3, #6]
	leds.GPIO_PinConfig.GPIO_PinOutSpeed = GPIO_SLOWSPEED; //GPIO_MEDIUMSPEED
 8000420:	4b88      	ldr	r3, [pc, #544]	; (8000644 <peripheral_Config_Ini+0x244>)
 8000422:	2200      	movs	r2, #0
 8000424:	71da      	strb	r2, [r3, #7]
	leds.GPIO_PinConfig.GPIO_PinPullUpDown = GPIO_NOPULL;
 8000426:	4b87      	ldr	r3, [pc, #540]	; (8000644 <peripheral_Config_Ini+0x244>)
 8000428:	2200      	movs	r2, #0
 800042a:	721a      	strb	r2, [r3, #8]
	//Initialization LED0
	GPIO_PinInit(&leds);
 800042c:	4b85      	ldr	r3, [pc, #532]	; (8000644 <peripheral_Config_Ini+0x244>)
 800042e:	0018      	movs	r0, r3
 8000430:	f000 fa3a 	bl	80008a8 <GPIO_PinInit>

	//LED1.PA1.Port,Mode,OutType,OutSpeed and PullUpDown same as LED0
	leds.GPIO_PinConfig.GPIO_PinNumber = PIN_LED1;
 8000434:	4b83      	ldr	r3, [pc, #524]	; (8000644 <peripheral_Config_Ini+0x244>)
 8000436:	2201      	movs	r2, #1
 8000438:	711a      	strb	r2, [r3, #4]
	//Initialization LED1
	GPIO_PinInit(&leds);
 800043a:	4b82      	ldr	r3, [pc, #520]	; (8000644 <peripheral_Config_Ini+0x244>)
 800043c:	0018      	movs	r0, r3
 800043e:	f000 fa33 	bl	80008a8 <GPIO_PinInit>

	//LED2.PA9.Port,Mode,OutType,OutSpeed and PullUpDown same as LED0
	leds.GPIO_PinConfig.GPIO_PinNumber = PIN_LED2;
 8000442:	4b80      	ldr	r3, [pc, #512]	; (8000644 <peripheral_Config_Ini+0x244>)
 8000444:	2209      	movs	r2, #9
 8000446:	711a      	strb	r2, [r3, #4]
	//Initialization LED2
	GPIO_PinInit(&leds);
 8000448:	4b7e      	ldr	r3, [pc, #504]	; (8000644 <peripheral_Config_Ini+0x244>)
 800044a:	0018      	movs	r0, r3
 800044c:	f000 fa2c 	bl	80008a8 <GPIO_PinInit>

	//LED3.PA10.Port,Mode,OutType,OutSpeed and PullUpDown same as LED0
	leds.GPIO_PinConfig.GPIO_PinNumber = PIN_LED3;
 8000450:	4b7c      	ldr	r3, [pc, #496]	; (8000644 <peripheral_Config_Ini+0x244>)
 8000452:	220a      	movs	r2, #10
 8000454:	711a      	strb	r2, [r3, #4]
	//Initialization LED3
	GPIO_PinInit(&leds);
 8000456:	4b7b      	ldr	r3, [pc, #492]	; (8000644 <peripheral_Config_Ini+0x244>)
 8000458:	0018      	movs	r0, r3
 800045a:	f000 fa25 	bl	80008a8 <GPIO_PinInit>

	//LEDs OFF
	GPIO_WritePin(GPIOA,PIN_LED0,1);
 800045e:	2390      	movs	r3, #144	; 0x90
 8000460:	05db      	lsls	r3, r3, #23
 8000462:	2201      	movs	r2, #1
 8000464:	2100      	movs	r1, #0
 8000466:	0018      	movs	r0, r3
 8000468:	f000 fbac 	bl	8000bc4 <GPIO_WritePin>
	GPIO_WritePin(GPIOA,PIN_LED1,0);
 800046c:	2390      	movs	r3, #144	; 0x90
 800046e:	05db      	lsls	r3, r3, #23
 8000470:	2200      	movs	r2, #0
 8000472:	2101      	movs	r1, #1
 8000474:	0018      	movs	r0, r3
 8000476:	f000 fba5 	bl	8000bc4 <GPIO_WritePin>
	GPIO_WritePin(GPIOA,PIN_LED2,0);
 800047a:	2390      	movs	r3, #144	; 0x90
 800047c:	05db      	lsls	r3, r3, #23
 800047e:	2200      	movs	r2, #0
 8000480:	2109      	movs	r1, #9
 8000482:	0018      	movs	r0, r3
 8000484:	f000 fb9e 	bl	8000bc4 <GPIO_WritePin>
	GPIO_WritePin(GPIOA,PIN_LED3,1);
 8000488:	2390      	movs	r3, #144	; 0x90
 800048a:	05db      	lsls	r3, r3, #23
 800048c:	2201      	movs	r2, #1
 800048e:	210a      	movs	r1, #10
 8000490:	0018      	movs	r0, r3
 8000492:	f000 fb97 	bl	8000bc4 <GPIO_WritePin>

	/***************************************BUTTONS********************************/
	//BUTTON ON-OFF. PB3
	buttons.pGPIO = GPIOB;
 8000496:	4b6c      	ldr	r3, [pc, #432]	; (8000648 <peripheral_Config_Ini+0x248>)
 8000498:	4a6c      	ldr	r2, [pc, #432]	; (800064c <peripheral_Config_Ini+0x24c>)
 800049a:	601a      	str	r2, [r3, #0]
	buttons.GPIO_PinConfig.GPIO_PinNumber = PIN_BUTTON_OFFON;
 800049c:	4b6a      	ldr	r3, [pc, #424]	; (8000648 <peripheral_Config_Ini+0x248>)
 800049e:	2203      	movs	r2, #3
 80004a0:	711a      	strb	r2, [r3, #4]
	buttons.GPIO_PinConfig.GPIO_PinMode = GPIO_FALL_TRIG; //interrupt falling edge
 80004a2:	4b69      	ldr	r3, [pc, #420]	; (8000648 <peripheral_Config_Ini+0x248>)
 80004a4:	2204      	movs	r2, #4
 80004a6:	715a      	strb	r2, [r3, #5]
	buttons.GPIO_PinConfig.GPIO_PinPullUpDown = GPIO_PULLUP; //pull up (3.3 by default)
 80004a8:	4b67      	ldr	r3, [pc, #412]	; (8000648 <peripheral_Config_Ini+0x248>)
 80004aa:	2201      	movs	r2, #1
 80004ac:	721a      	strb	r2, [r3, #8]
	//initialization button on-off
	GPIO_PinInit(&buttons);
 80004ae:	4b66      	ldr	r3, [pc, #408]	; (8000648 <peripheral_Config_Ini+0x248>)
 80004b0:	0018      	movs	r0, r3
 80004b2:	f000 f9f9 	bl	80008a8 <GPIO_PinInit>

	//EMERGENCY BUTTON. PB5
	buttons.pGPIO = GPIOB;
 80004b6:	4b64      	ldr	r3, [pc, #400]	; (8000648 <peripheral_Config_Ini+0x248>)
 80004b8:	4a64      	ldr	r2, [pc, #400]	; (800064c <peripheral_Config_Ini+0x24c>)
 80004ba:	601a      	str	r2, [r3, #0]
	buttons.GPIO_PinConfig.GPIO_PinNumber = PIN_BUTTON_EMERGENCY;
 80004bc:	4b62      	ldr	r3, [pc, #392]	; (8000648 <peripheral_Config_Ini+0x248>)
 80004be:	2205      	movs	r2, #5
 80004c0:	711a      	strb	r2, [r3, #4]
	buttons.GPIO_PinConfig.GPIO_PinMode = GPIO_FALL_TRIG;
 80004c2:	4b61      	ldr	r3, [pc, #388]	; (8000648 <peripheral_Config_Ini+0x248>)
 80004c4:	2204      	movs	r2, #4
 80004c6:	715a      	strb	r2, [r3, #5]
	buttons.GPIO_PinConfig.GPIO_PinPullUpDown = GPIO_PULLUP;
 80004c8:	4b5f      	ldr	r3, [pc, #380]	; (8000648 <peripheral_Config_Ini+0x248>)
 80004ca:	2201      	movs	r2, #1
 80004cc:	721a      	strb	r2, [r3, #8]
	//initialization emergency button
	GPIO_PinInit(&buttons);
 80004ce:	4b5e      	ldr	r3, [pc, #376]	; (8000648 <peripheral_Config_Ini+0x248>)
 80004d0:	0018      	movs	r0, r3
 80004d2:	f000 f9e9 	bl	80008a8 <GPIO_PinInit>

	/**************************************SPI***********************************/
	//GPIOs for SPI: SPI1 PA4:NSS PA5:SCK PA6:MISO PA7:MOSI. Alternate function AF0
	spiGPIOs.pGPIO = GPIOA;
 80004d6:	4b5e      	ldr	r3, [pc, #376]	; (8000650 <peripheral_Config_Ini+0x250>)
 80004d8:	2290      	movs	r2, #144	; 0x90
 80004da:	05d2      	lsls	r2, r2, #23
 80004dc:	601a      	str	r2, [r3, #0]
	spiGPIOs.GPIO_PinConfig.GPIO_PinMode = GPIO_ALTFUN;
 80004de:	4b5c      	ldr	r3, [pc, #368]	; (8000650 <peripheral_Config_Ini+0x250>)
 80004e0:	2202      	movs	r2, #2
 80004e2:	715a      	strb	r2, [r3, #5]
	spiGPIOs.GPIO_PinConfig.GPIO_PinAlterFunc = GPIO_AF0;
 80004e4:	4b5a      	ldr	r3, [pc, #360]	; (8000650 <peripheral_Config_Ini+0x250>)
 80004e6:	2200      	movs	r2, #0
 80004e8:	725a      	strb	r2, [r3, #9]
	spiGPIOs.GPIO_PinConfig.GPIO_PinOutType = GPIO_PUSHPULL;
 80004ea:	4b59      	ldr	r3, [pc, #356]	; (8000650 <peripheral_Config_Ini+0x250>)
 80004ec:	2200      	movs	r2, #0
 80004ee:	719a      	strb	r2, [r3, #6]
	spiGPIOs.GPIO_PinConfig.GPIO_PinOutSpeed = GPIO_HIGHSPEED; //FAST SPEED
 80004f0:	4b57      	ldr	r3, [pc, #348]	; (8000650 <peripheral_Config_Ini+0x250>)
 80004f2:	2203      	movs	r2, #3
 80004f4:	71da      	strb	r2, [r3, #7]
	spiGPIOs.GPIO_PinConfig.GPIO_PinPullUpDown = GPIO_NOPULL;
 80004f6:	4b56      	ldr	r3, [pc, #344]	; (8000650 <peripheral_Config_Ini+0x250>)
 80004f8:	2200      	movs	r2, #0
 80004fa:	721a      	strb	r2, [r3, #8]
	//SCK
	spiGPIOs.GPIO_PinConfig.GPIO_PinNumber = PIN_SPI1_SCK;//SCK
 80004fc:	4b54      	ldr	r3, [pc, #336]	; (8000650 <peripheral_Config_Ini+0x250>)
 80004fe:	2205      	movs	r2, #5
 8000500:	711a      	strb	r2, [r3, #4]
	GPIO_PinInit(&spiGPIOs);
 8000502:	4b53      	ldr	r3, [pc, #332]	; (8000650 <peripheral_Config_Ini+0x250>)
 8000504:	0018      	movs	r0, r3
 8000506:	f000 f9cf 	bl	80008a8 <GPIO_PinInit>

	spiGPIOs.GPIO_PinConfig.GPIO_PinPullUpDown = GPIO_PULLUP;
 800050a:	4b51      	ldr	r3, [pc, #324]	; (8000650 <peripheral_Config_Ini+0x250>)
 800050c:	2201      	movs	r2, #1
 800050e:	721a      	strb	r2, [r3, #8]
	//NSS
	spiGPIOs.GPIO_PinConfig.GPIO_PinNumber = PIN_SPI1_NSS;//NSS
 8000510:	4b4f      	ldr	r3, [pc, #316]	; (8000650 <peripheral_Config_Ini+0x250>)
 8000512:	2204      	movs	r2, #4
 8000514:	711a      	strb	r2, [r3, #4]
	GPIO_PinInit(&spiGPIOs);
 8000516:	4b4e      	ldr	r3, [pc, #312]	; (8000650 <peripheral_Config_Ini+0x250>)
 8000518:	0018      	movs	r0, r3
 800051a:	f000 f9c5 	bl	80008a8 <GPIO_PinInit>
	//MISO
	spiGPIOs.GPIO_PinConfig.GPIO_PinNumber = PIN_SPI1_MISO;//MISO
 800051e:	4b4c      	ldr	r3, [pc, #304]	; (8000650 <peripheral_Config_Ini+0x250>)
 8000520:	2206      	movs	r2, #6
 8000522:	711a      	strb	r2, [r3, #4]
	GPIO_PinInit(&spiGPIOs);
 8000524:	4b4a      	ldr	r3, [pc, #296]	; (8000650 <peripheral_Config_Ini+0x250>)
 8000526:	0018      	movs	r0, r3
 8000528:	f000 f9be 	bl	80008a8 <GPIO_PinInit>
	//MOSI
	spiGPIOs.GPIO_PinConfig.GPIO_PinNumber = PIN_SPI1_MOSI;//MOSI
 800052c:	4b48      	ldr	r3, [pc, #288]	; (8000650 <peripheral_Config_Ini+0x250>)
 800052e:	2207      	movs	r2, #7
 8000530:	711a      	strb	r2, [r3, #4]
	GPIO_PinInit(&spiGPIOs);
 8000532:	4b47      	ldr	r3, [pc, #284]	; (8000650 <peripheral_Config_Ini+0x250>)
 8000534:	0018      	movs	r0, r3
 8000536:	f000 f9b7 	bl	80008a8 <GPIO_PinInit>

	/*SPI handle configuration and initialization*/
	//SPI configuration
	spi1.pSPI = SPI1_I2S1;
 800053a:	4b46      	ldr	r3, [pc, #280]	; (8000654 <peripheral_Config_Ini+0x254>)
 800053c:	4a46      	ldr	r2, [pc, #280]	; (8000658 <peripheral_Config_Ini+0x258>)
 800053e:	601a      	str	r2, [r3, #0]
	spi1.SPI_Config.SPI_Mode = SPI_MASTER;
 8000540:	4b44      	ldr	r3, [pc, #272]	; (8000654 <peripheral_Config_Ini+0x254>)
 8000542:	2201      	movs	r2, #1
 8000544:	711a      	strb	r2, [r3, #4]
	spi1.SPI_Config.SPI_Speed = SPI_SPEED_2;
 8000546:	4b43      	ldr	r3, [pc, #268]	; (8000654 <peripheral_Config_Ini+0x254>)
 8000548:	2200      	movs	r2, #0
 800054a:	715a      	strb	r2, [r3, #5]
	spi1.SPI_Config.SPI_CommType = SPI_FULLDUPLEX;
 800054c:	4b41      	ldr	r3, [pc, #260]	; (8000654 <peripheral_Config_Ini+0x254>)
 800054e:	2201      	movs	r2, #1
 8000550:	719a      	strb	r2, [r3, #6]
	spi1.SPI_Config.SPI_DataSize = SPI_8BIT;
 8000552:	4b40      	ldr	r3, [pc, #256]	; (8000654 <peripheral_Config_Ini+0x254>)
 8000554:	2207      	movs	r2, #7
 8000556:	71da      	strb	r2, [r3, #7]
	spi1.SPI_Config.SPI_SWslave = SPI_HW_MGMT;
 8000558:	4b3e      	ldr	r3, [pc, #248]	; (8000654 <peripheral_Config_Ini+0x254>)
 800055a:	2200      	movs	r2, #0
 800055c:	721a      	strb	r2, [r3, #8]
	spi1.SPI_Config.SPI_Pol = SPI_CLK_IDLE_0;
 800055e:	4b3d      	ldr	r3, [pc, #244]	; (8000654 <peripheral_Config_Ini+0x254>)
 8000560:	2200      	movs	r2, #0
 8000562:	725a      	strb	r2, [r3, #9]
	spi1.SPI_Config.SPI_Phase = SPI_CLK_CAPT_FIRST;
 8000564:	4b3b      	ldr	r3, [pc, #236]	; (8000654 <peripheral_Config_Ini+0x254>)
 8000566:	2200      	movs	r2, #0
 8000568:	729a      	strb	r2, [r3, #10]

	//SPI initialization
	SPI_Init(&spi1);
 800056a:	4b3a      	ldr	r3, [pc, #232]	; (8000654 <peripheral_Config_Ini+0x254>)
 800056c:	0018      	movs	r0, r3
 800056e:	f000 ff47 	bl	8001400 <SPI_Init>

	//Set SSOE to 1 to make NSS output enable
	SPI_SSOE(&spi1,ENABLE);
 8000572:	4b38      	ldr	r3, [pc, #224]	; (8000654 <peripheral_Config_Ini+0x254>)
 8000574:	2101      	movs	r1, #1
 8000576:	0018      	movs	r0, r3
 8000578:	f001 f808 	bl	800158c <SPI_SSOE>

	//Enable SPI peripheral
	SPI_EnableDisable(&spi1,ENABLE);
 800057c:	4b35      	ldr	r3, [pc, #212]	; (8000654 <peripheral_Config_Ini+0x254>)
 800057e:	2101      	movs	r1, #1
 8000580:	0018      	movs	r0, r3
 8000582:	f000 ffe3 	bl	800154c <SPI_EnableDisable>

	/**********************************I2C*****************************************/
	//GPIOs for I2C: PB6(SCL), PB9(SDA).Alternate function AF1!
	i2cGPIOs.pGPIO = GPIOB;
 8000586:	4b35      	ldr	r3, [pc, #212]	; (800065c <peripheral_Config_Ini+0x25c>)
 8000588:	4a30      	ldr	r2, [pc, #192]	; (800064c <peripheral_Config_Ini+0x24c>)
 800058a:	601a      	str	r2, [r3, #0]
	i2cGPIOs.GPIO_PinConfig.GPIO_PinMode = GPIO_ALTFUN;
 800058c:	4b33      	ldr	r3, [pc, #204]	; (800065c <peripheral_Config_Ini+0x25c>)
 800058e:	2202      	movs	r2, #2
 8000590:	715a      	strb	r2, [r3, #5]
	i2cGPIOs.GPIO_PinConfig.GPIO_PinAlterFunc = GPIO_AF1;
 8000592:	4b32      	ldr	r3, [pc, #200]	; (800065c <peripheral_Config_Ini+0x25c>)
 8000594:	2201      	movs	r2, #1
 8000596:	725a      	strb	r2, [r3, #9]
	i2cGPIOs.GPIO_PinConfig.GPIO_PinOutType = GPIO_PUSHPULL;
 8000598:	4b30      	ldr	r3, [pc, #192]	; (800065c <peripheral_Config_Ini+0x25c>)
 800059a:	2200      	movs	r2, #0
 800059c:	719a      	strb	r2, [r3, #6]
	i2cGPIOs.GPIO_PinConfig.GPIO_PinOutSpeed = GPIO_HIGHSPEED; //FAST SPEED
 800059e:	4b2f      	ldr	r3, [pc, #188]	; (800065c <peripheral_Config_Ini+0x25c>)
 80005a0:	2203      	movs	r2, #3
 80005a2:	71da      	strb	r2, [r3, #7]
	i2cGPIOs.GPIO_PinConfig.GPIO_PinPullUpDown = GPIO_PULLUP; //internal pull up
 80005a4:	4b2d      	ldr	r3, [pc, #180]	; (800065c <peripheral_Config_Ini+0x25c>)
 80005a6:	2201      	movs	r2, #1
 80005a8:	721a      	strb	r2, [r3, #8]
	//SCL
	i2cGPIOs.GPIO_PinConfig.GPIO_PinNumber = PIN_I2C1_SCL;//SCL
 80005aa:	4b2c      	ldr	r3, [pc, #176]	; (800065c <peripheral_Config_Ini+0x25c>)
 80005ac:	2206      	movs	r2, #6
 80005ae:	711a      	strb	r2, [r3, #4]
	GPIO_PinInit(&i2cGPIOs);
 80005b0:	4b2a      	ldr	r3, [pc, #168]	; (800065c <peripheral_Config_Ini+0x25c>)
 80005b2:	0018      	movs	r0, r3
 80005b4:	f000 f978 	bl	80008a8 <GPIO_PinInit>
	//SDA
	i2cGPIOs.GPIO_PinConfig.GPIO_PinNumber = PIN_I2C1_SDA;//SDA
 80005b8:	4b28      	ldr	r3, [pc, #160]	; (800065c <peripheral_Config_Ini+0x25c>)
 80005ba:	2209      	movs	r2, #9
 80005bc:	711a      	strb	r2, [r3, #4]
	GPIO_PinInit(&i2cGPIOs);
 80005be:	4b27      	ldr	r3, [pc, #156]	; (800065c <peripheral_Config_Ini+0x25c>)
 80005c0:	0018      	movs	r0, r3
 80005c2:	f000 f971 	bl	80008a8 <GPIO_PinInit>

	/*I2C configuration*/
	i2c1.pI2C = I2C1;
 80005c6:	4b26      	ldr	r3, [pc, #152]	; (8000660 <peripheral_Config_Ini+0x260>)
 80005c8:	4a26      	ldr	r2, [pc, #152]	; (8000664 <peripheral_Config_Ini+0x264>)
 80005ca:	601a      	str	r2, [r3, #0]
	//timing according to table for 100kHz I2C,8MHz clock
	param1 = 0x01;//PRESC
 80005cc:	1dfb      	adds	r3, r7, #7
 80005ce:	2201      	movs	r2, #1
 80005d0:	701a      	strb	r2, [r3, #0]
	param2 = 0x04;//SCLDEL
 80005d2:	1dbb      	adds	r3, r7, #6
 80005d4:	2204      	movs	r2, #4
 80005d6:	701a      	strb	r2, [r3, #0]
	param3 = 0x02;//SDADEL
 80005d8:	1d7b      	adds	r3, r7, #5
 80005da:	2202      	movs	r2, #2
 80005dc:	701a      	strb	r2, [r3, #0]
	param4 = 0x0F;//SCLH
 80005de:	1d3b      	adds	r3, r7, #4
 80005e0:	220f      	movs	r2, #15
 80005e2:	701a      	strb	r2, [r3, #0]
	param5 = 0x13;//SCLL
 80005e4:	1cfb      	adds	r3, r7, #3
 80005e6:	2213      	movs	r2, #19
 80005e8:	701a      	strb	r2, [r3, #0]
	I2C_Master_TimingR(&i2c1, param1, param2, param3, param4, param5);
 80005ea:	1d7b      	adds	r3, r7, #5
 80005ec:	781c      	ldrb	r4, [r3, #0]
 80005ee:	1dbb      	adds	r3, r7, #6
 80005f0:	781a      	ldrb	r2, [r3, #0]
 80005f2:	1dfb      	adds	r3, r7, #7
 80005f4:	7819      	ldrb	r1, [r3, #0]
 80005f6:	481a      	ldr	r0, [pc, #104]	; (8000660 <peripheral_Config_Ini+0x260>)
 80005f8:	1cfb      	adds	r3, r7, #3
 80005fa:	781b      	ldrb	r3, [r3, #0]
 80005fc:	9301      	str	r3, [sp, #4]
 80005fe:	1d3b      	adds	r3, r7, #4
 8000600:	781b      	ldrb	r3, [r3, #0]
 8000602:	9300      	str	r3, [sp, #0]
 8000604:	0023      	movs	r3, r4
 8000606:	f000 fe6b 	bl	80012e0 <I2C_Master_TimingR>
	i2c1.I2C_Config.I2C_AddressMode = I2C_ADDRESS_MODE_7BIT;
 800060a:	4b15      	ldr	r3, [pc, #84]	; (8000660 <peripheral_Config_Ini+0x260>)
 800060c:	2200      	movs	r2, #0
 800060e:	715a      	strb	r2, [r3, #5]
	i2c1.I2C_Comm_t.I2C_SlaveAddress = ADS1115_ADDRESS; //ADS1115 address
 8000610:	4b13      	ldr	r3, [pc, #76]	; (8000660 <peripheral_Config_Ini+0x260>)
 8000612:	2248      	movs	r2, #72	; 0x48
 8000614:	841a      	strh	r2, [r3, #32]
	i2c1.I2C_Comm_t.I2C_Nbytes = 1;
 8000616:	4b12      	ldr	r3, [pc, #72]	; (8000660 <peripheral_Config_Ini+0x260>)
 8000618:	2201      	movs	r2, #1
 800061a:	779a      	strb	r2, [r3, #30]
	i2c1.I2C_Comm_t.RX_length = 1;
 800061c:	4b10      	ldr	r3, [pc, #64]	; (8000660 <peripheral_Config_Ini+0x260>)
 800061e:	2201      	movs	r2, #1
 8000620:	615a      	str	r2, [r3, #20]
	i2c1.I2C_Comm_t.I2C_RepeatStart = I2C_AUTOEND;
 8000622:	4b0f      	ldr	r3, [pc, #60]	; (8000660 <peripheral_Config_Ini+0x260>)
 8000624:	2200      	movs	r2, #0
 8000626:	775a      	strb	r2, [r3, #29]

	//I2C initialization
	I2C_Init(&i2c1);
 8000628:	4b0d      	ldr	r3, [pc, #52]	; (8000660 <peripheral_Config_Ini+0x260>)
 800062a:	0018      	movs	r0, r3
 800062c:	f000 fb8a 	bl	8000d44 <I2C_Init>
	//Enable I2C peripheral
	I2C_EnableDisable(&i2c1,ENABLE);
 8000630:	4b0b      	ldr	r3, [pc, #44]	; (8000660 <peripheral_Config_Ini+0x260>)
 8000632:	2101      	movs	r1, #1
 8000634:	0018      	movs	r0, r3
 8000636:	f000 fb97 	bl	8000d68 <I2C_EnableDisable>

}
 800063a:	46c0      	nop			; (mov r8, r8)
 800063c:	46bd      	mov	sp, r7
 800063e:	b003      	add	sp, #12
 8000640:	bd90      	pop	{r4, r7, pc}
 8000642:	46c0      	nop			; (mov r8, r8)
 8000644:	2000002c 	.word	0x2000002c
 8000648:	20000020 	.word	0x20000020
 800064c:	48000400 	.word	0x48000400
 8000650:	20000038 	.word	0x20000038
 8000654:	20000050 	.word	0x20000050
 8000658:	40013000 	.word	0x40013000
 800065c:	20000044 	.word	0x20000044
 8000660:	20000074 	.word	0x20000074
 8000664:	40005400 	.word	0x40005400

08000668 <configureADS1115>:
/*********************************CONFIGURE ADS1115**********************************************/
void configureADS1115(I2C_Handle_t *pI2Chandle){
 8000668:	b580      	push	{r7, lr}
 800066a:	b082      	sub	sp, #8
 800066c:	af00      	add	r7, sp, #0
 800066e:	6078      	str	r0, [r7, #4]
	//https://cdn-shop.adafruit.com/datasheets/ads1115.pdf
	if (flagADS1115 < ADS1115_1ST_DURING){
 8000670:	4b1c      	ldr	r3, [pc, #112]	; (80006e4 <configureADS1115+0x7c>)
 8000672:	781b      	ldrb	r3, [r3, #0]
 8000674:	2b00      	cmp	r3, #0
 8000676:	d119      	bne.n	80006ac <configureADS1115+0x44>
		//continuous mode
		//1-write to config reg. bit 8 mode(0:continuous;1:single-shot,default);bits 9-11:gain amplifier.bit 15 set to 1 starts single shot (in single-shot mode)
		//transmiter:address+0x01(points to config reg)+0b10000100(MSB:start shot+default gain+continuous)+0b10000011(LSB:default rate+no comparator)
		bytes_to_ADS1115_reg[0] = 0x01; //0x01(points to config reg)
 8000678:	4b1b      	ldr	r3, [pc, #108]	; (80006e8 <configureADS1115+0x80>)
 800067a:	2201      	movs	r2, #1
 800067c:	701a      	strb	r2, [r3, #0]
		bytes_to_ADS1115_reg[1] = 0x84; //0b10000100 (MSB)
 800067e:	4b1a      	ldr	r3, [pc, #104]	; (80006e8 <configureADS1115+0x80>)
 8000680:	2284      	movs	r2, #132	; 0x84
 8000682:	705a      	strb	r2, [r3, #1]
		bytes_to_ADS1115_reg[2] = 0x83; //0b10000011 (LSB)
 8000684:	4b18      	ldr	r3, [pc, #96]	; (80006e8 <configureADS1115+0x80>)
 8000686:	2283      	movs	r2, #131	; 0x83
 8000688:	709a      	strb	r2, [r3, #2]
		pI2Chandle->I2C_Comm_t.TX_buffer = bytes_to_ADS1115_reg; //buffer pointing to bytes_to_ADS1115_reg
 800068a:	687b      	ldr	r3, [r7, #4]
 800068c:	4a16      	ldr	r2, [pc, #88]	; (80006e8 <configureADS1115+0x80>)
 800068e:	611a      	str	r2, [r3, #16]
		flagADS1115 = ADS1115_1ST_DURING;
 8000690:	4b14      	ldr	r3, [pc, #80]	; (80006e4 <configureADS1115+0x7c>)
 8000692:	2201      	movs	r2, #1
 8000694:	701a      	strb	r2, [r3, #0]
		I2C_EnableDisable(&i2c1,ENABLE);
 8000696:	4b15      	ldr	r3, [pc, #84]	; (80006ec <configureADS1115+0x84>)
 8000698:	2101      	movs	r1, #1
 800069a:	0018      	movs	r0, r3
 800069c:	f000 fb64 	bl	8000d68 <I2C_EnableDisable>
		I2C_Master_Transmitter(pI2Chandle, 3, 1);
 80006a0:	687b      	ldr	r3, [r7, #4]
 80006a2:	2201      	movs	r2, #1
 80006a4:	2103      	movs	r1, #3
 80006a6:	0018      	movs	r0, r3
 80006a8:	f000 fc42 	bl	8000f30 <I2C_Master_Transmitter>
	}


	if (flagADS1115 == ADS1115_1ST_DONE){
 80006ac:	4b0d      	ldr	r3, [pc, #52]	; (80006e4 <configureADS1115+0x7c>)
 80006ae:	781b      	ldrb	r3, [r3, #0]
 80006b0:	2b02      	cmp	r3, #2
 80006b2:	d113      	bne.n	80006dc <configureADS1115+0x74>
		//2-select the conversion register by writing to pointer reg(0x00:conversion reg;0x01:config reg)
		//transmitter:address+0x00(points to conversion register)
		bytes_to_ADS1115_reg[0] = 0x00; //0x00(points to conversion register)
 80006b4:	4b0c      	ldr	r3, [pc, #48]	; (80006e8 <configureADS1115+0x80>)
 80006b6:	2200      	movs	r2, #0
 80006b8:	701a      	strb	r2, [r3, #0]
		pI2Chandle->I2C_Comm_t.TX_buffer = bytes_to_ADS1115_reg; //buffer pointing to bytes_to_ADS1115_reg
 80006ba:	687b      	ldr	r3, [r7, #4]
 80006bc:	4a0a      	ldr	r2, [pc, #40]	; (80006e8 <configureADS1115+0x80>)
 80006be:	611a      	str	r2, [r3, #16]
		flagADS1115 = ADS1115_2ND_DURING;
 80006c0:	4b08      	ldr	r3, [pc, #32]	; (80006e4 <configureADS1115+0x7c>)
 80006c2:	2203      	movs	r2, #3
 80006c4:	701a      	strb	r2, [r3, #0]
		I2C_EnableDisable(&i2c1,ENABLE);
 80006c6:	4b09      	ldr	r3, [pc, #36]	; (80006ec <configureADS1115+0x84>)
 80006c8:	2101      	movs	r1, #1
 80006ca:	0018      	movs	r0, r3
 80006cc:	f000 fb4c 	bl	8000d68 <I2C_EnableDisable>
		I2C_Master_Transmitter(pI2Chandle, 1, 1);
 80006d0:	687b      	ldr	r3, [r7, #4]
 80006d2:	2201      	movs	r2, #1
 80006d4:	2101      	movs	r1, #1
 80006d6:	0018      	movs	r0, r3
 80006d8:	f000 fc2a 	bl	8000f30 <I2C_Master_Transmitter>
	}

}
 80006dc:	46c0      	nop			; (mov r8, r8)
 80006de:	46bd      	mov	sp, r7
 80006e0:	b002      	add	sp, #8
 80006e2:	bd80      	pop	{r7, pc}
 80006e4:	200000a3 	.word	0x200000a3
 80006e8:	200000a0 	.word	0x200000a0
 80006ec:	20000074 	.word	0x20000074

080006f0 <Reset_Handler>:

  .section .text.Reset_Handler
  .weak Reset_Handler
  .type Reset_Handler, %function
Reset_Handler:
  ldr   r0, =_estack
 80006f0:	480d      	ldr	r0, [pc, #52]	; (8000728 <LoopForever+0x2>)
  mov   sp, r0          /* set stack pointer */
 80006f2:	4685      	mov	sp, r0
/* Call the clock system initialization function.*/
  bl  SystemInit
 80006f4:	e000      	b.n	80006f8 <Reset_Handler+0x8>
 80006f6:	bf00      	nop

/* Copy the data segment initializers from flash to SRAM */
  ldr r0, =_sdata
 80006f8:	480c      	ldr	r0, [pc, #48]	; (800072c <LoopForever+0x6>)
  ldr r1, =_edata
 80006fa:	490d      	ldr	r1, [pc, #52]	; (8000730 <LoopForever+0xa>)
  ldr r2, =_sidata
 80006fc:	4a0d      	ldr	r2, [pc, #52]	; (8000734 <LoopForever+0xe>)
  movs r3, #0
 80006fe:	2300      	movs	r3, #0
  b LoopCopyDataInit
 8000700:	e002      	b.n	8000708 <LoopCopyDataInit>

08000702 <CopyDataInit>:

CopyDataInit:
  ldr r4, [r2, r3]
 8000702:	58d4      	ldr	r4, [r2, r3]
  str r4, [r0, r3]
 8000704:	50c4      	str	r4, [r0, r3]
  adds r3, r3, #4
 8000706:	3304      	adds	r3, #4

08000708 <LoopCopyDataInit>:

LoopCopyDataInit:
  adds r4, r0, r3
 8000708:	18c4      	adds	r4, r0, r3
  cmp r4, r1
 800070a:	428c      	cmp	r4, r1
  bcc CopyDataInit
 800070c:	d3f9      	bcc.n	8000702 <CopyDataInit>

/* Zero fill the bss segment. */
  ldr r2, =_sbss
 800070e:	4a0a      	ldr	r2, [pc, #40]	; (8000738 <LoopForever+0x12>)
  ldr r4, =_ebss
 8000710:	4c0a      	ldr	r4, [pc, #40]	; (800073c <LoopForever+0x16>)
  movs r3, #0
 8000712:	2300      	movs	r3, #0
  b LoopFillZerobss
 8000714:	e001      	b.n	800071a <LoopFillZerobss>

08000716 <FillZerobss>:

FillZerobss:
  str  r3, [r2]
 8000716:	6013      	str	r3, [r2, #0]
  adds r2, r2, #4
 8000718:	3204      	adds	r2, #4

0800071a <LoopFillZerobss>:

LoopFillZerobss:
  cmp r2, r4
 800071a:	42a2      	cmp	r2, r4
  bcc FillZerobss
 800071c:	d3fb      	bcc.n	8000716 <FillZerobss>

/* Call static constructors */
  bl __libc_init_array
 800071e:	f001 f871 	bl	8001804 <__libc_init_array>
/* Call the application's entry point.*/
  bl main
 8000722:	f7ff fd05 	bl	8000130 <main>

08000726 <LoopForever>:

LoopForever:
    b LoopForever
 8000726:	e7fe      	b.n	8000726 <LoopForever>
  ldr   r0, =_estack
 8000728:	20008000 	.word	0x20008000
  ldr r0, =_sdata
 800072c:	20000000 	.word	0x20000000
  ldr r1, =_edata
 8000730:	20000004 	.word	0x20000004
  ldr r2, =_sidata
 8000734:	0800187c 	.word	0x0800187c
  ldr r2, =_sbss
 8000738:	20000004 	.word	0x20000004
  ldr r4, =_ebss
 800073c:	200000a4 	.word	0x200000a4

08000740 <ADC_COMP_IRQHandler>:
 * @retval : None
*/
  .section .text.Default_Handler,"ax",%progbits
Default_Handler:
Infinite_Loop:
  b Infinite_Loop
 8000740:	e7fe      	b.n	8000740 <ADC_COMP_IRQHandler>
	...

08000744 <GPIO_ClockControl>:
 *      Author: danim
 */

#include "gpio.h"
/*********GPIO clock control***************/
void GPIO_ClockControl(GPIO_RegStruct_t *pGPIO, uint8_t EnableDisable){
 8000744:	b580      	push	{r7, lr}
 8000746:	b082      	sub	sp, #8
 8000748:	af00      	add	r7, sp, #0
 800074a:	6078      	str	r0, [r7, #4]
 800074c:	000a      	movs	r2, r1
 800074e:	1cfb      	adds	r3, r7, #3
 8000750:	701a      	strb	r2, [r3, #0]

	if (EnableDisable == ENABLE) {
 8000752:	1cfb      	adds	r3, r7, #3
 8000754:	781b      	ldrb	r3, [r3, #0]
 8000756:	2b01      	cmp	r3, #1
 8000758:	d148      	bne.n	80007ec <GPIO_ClockControl+0xa8>
		if (pGPIO==GPIOA) { //I can't do switch-case with pointers! that's why I use if
 800075a:	687a      	ldr	r2, [r7, #4]
 800075c:	2390      	movs	r3, #144	; 0x90
 800075e:	05db      	lsls	r3, r3, #23
 8000760:	429a      	cmp	r2, r3
 8000762:	d107      	bne.n	8000774 <GPIO_ClockControl+0x30>
			GPIOA_EnableClock();
 8000764:	4b44      	ldr	r3, [pc, #272]	; (8000878 <GPIO_ClockControl+0x134>)
 8000766:	695a      	ldr	r2, [r3, #20]
 8000768:	4b43      	ldr	r3, [pc, #268]	; (8000878 <GPIO_ClockControl+0x134>)
 800076a:	2180      	movs	r1, #128	; 0x80
 800076c:	0289      	lsls	r1, r1, #10
 800076e:	430a      	orrs	r2, r1
 8000770:	615a      	str	r2, [r3, #20]
		}
		else if (pGPIO==GPIOF){
			GPIOF_DisableClock();
		}
	}
}
 8000772:	e07d      	b.n	8000870 <GPIO_ClockControl+0x12c>
		else if (pGPIO==GPIOB){
 8000774:	687b      	ldr	r3, [r7, #4]
 8000776:	4a41      	ldr	r2, [pc, #260]	; (800087c <GPIO_ClockControl+0x138>)
 8000778:	4293      	cmp	r3, r2
 800077a:	d107      	bne.n	800078c <GPIO_ClockControl+0x48>
			GPIOB_EnableClock();
 800077c:	4b3e      	ldr	r3, [pc, #248]	; (8000878 <GPIO_ClockControl+0x134>)
 800077e:	695a      	ldr	r2, [r3, #20]
 8000780:	4b3d      	ldr	r3, [pc, #244]	; (8000878 <GPIO_ClockControl+0x134>)
 8000782:	2180      	movs	r1, #128	; 0x80
 8000784:	02c9      	lsls	r1, r1, #11
 8000786:	430a      	orrs	r2, r1
 8000788:	615a      	str	r2, [r3, #20]
}
 800078a:	e071      	b.n	8000870 <GPIO_ClockControl+0x12c>
		else if (pGPIO==GPIOC){
 800078c:	687b      	ldr	r3, [r7, #4]
 800078e:	4a3c      	ldr	r2, [pc, #240]	; (8000880 <GPIO_ClockControl+0x13c>)
 8000790:	4293      	cmp	r3, r2
 8000792:	d107      	bne.n	80007a4 <GPIO_ClockControl+0x60>
			GPIOC_EnableClock();
 8000794:	4b38      	ldr	r3, [pc, #224]	; (8000878 <GPIO_ClockControl+0x134>)
 8000796:	695a      	ldr	r2, [r3, #20]
 8000798:	4b37      	ldr	r3, [pc, #220]	; (8000878 <GPIO_ClockControl+0x134>)
 800079a:	2180      	movs	r1, #128	; 0x80
 800079c:	0309      	lsls	r1, r1, #12
 800079e:	430a      	orrs	r2, r1
 80007a0:	615a      	str	r2, [r3, #20]
}
 80007a2:	e065      	b.n	8000870 <GPIO_ClockControl+0x12c>
		else if (pGPIO==GPIOD){
 80007a4:	687b      	ldr	r3, [r7, #4]
 80007a6:	4a37      	ldr	r2, [pc, #220]	; (8000884 <GPIO_ClockControl+0x140>)
 80007a8:	4293      	cmp	r3, r2
 80007aa:	d107      	bne.n	80007bc <GPIO_ClockControl+0x78>
			GPIOD_EnableClock();
 80007ac:	4b32      	ldr	r3, [pc, #200]	; (8000878 <GPIO_ClockControl+0x134>)
 80007ae:	695a      	ldr	r2, [r3, #20]
 80007b0:	4b31      	ldr	r3, [pc, #196]	; (8000878 <GPIO_ClockControl+0x134>)
 80007b2:	2180      	movs	r1, #128	; 0x80
 80007b4:	0349      	lsls	r1, r1, #13
 80007b6:	430a      	orrs	r2, r1
 80007b8:	615a      	str	r2, [r3, #20]
}
 80007ba:	e059      	b.n	8000870 <GPIO_ClockControl+0x12c>
		else if (pGPIO==GPIOE){
 80007bc:	687b      	ldr	r3, [r7, #4]
 80007be:	4a32      	ldr	r2, [pc, #200]	; (8000888 <GPIO_ClockControl+0x144>)
 80007c0:	4293      	cmp	r3, r2
 80007c2:	d107      	bne.n	80007d4 <GPIO_ClockControl+0x90>
			GPIOE_EnableClock();
 80007c4:	4b2c      	ldr	r3, [pc, #176]	; (8000878 <GPIO_ClockControl+0x134>)
 80007c6:	695a      	ldr	r2, [r3, #20]
 80007c8:	4b2b      	ldr	r3, [pc, #172]	; (8000878 <GPIO_ClockControl+0x134>)
 80007ca:	2180      	movs	r1, #128	; 0x80
 80007cc:	0389      	lsls	r1, r1, #14
 80007ce:	430a      	orrs	r2, r1
 80007d0:	615a      	str	r2, [r3, #20]
}
 80007d2:	e04d      	b.n	8000870 <GPIO_ClockControl+0x12c>
		else if (pGPIO==GPIOF){
 80007d4:	687b      	ldr	r3, [r7, #4]
 80007d6:	4a2d      	ldr	r2, [pc, #180]	; (800088c <GPIO_ClockControl+0x148>)
 80007d8:	4293      	cmp	r3, r2
 80007da:	d149      	bne.n	8000870 <GPIO_ClockControl+0x12c>
			GPIOF_EnableClock();
 80007dc:	4b26      	ldr	r3, [pc, #152]	; (8000878 <GPIO_ClockControl+0x134>)
 80007de:	695a      	ldr	r2, [r3, #20]
 80007e0:	4b25      	ldr	r3, [pc, #148]	; (8000878 <GPIO_ClockControl+0x134>)
 80007e2:	2180      	movs	r1, #128	; 0x80
 80007e4:	03c9      	lsls	r1, r1, #15
 80007e6:	430a      	orrs	r2, r1
 80007e8:	615a      	str	r2, [r3, #20]
}
 80007ea:	e041      	b.n	8000870 <GPIO_ClockControl+0x12c>
		if (pGPIO==GPIOA) { //I can't do switch-case with pointers! that's why I use if
 80007ec:	687a      	ldr	r2, [r7, #4]
 80007ee:	2390      	movs	r3, #144	; 0x90
 80007f0:	05db      	lsls	r3, r3, #23
 80007f2:	429a      	cmp	r2, r3
 80007f4:	d106      	bne.n	8000804 <GPIO_ClockControl+0xc0>
			GPIOA_DisableClock();
 80007f6:	4b20      	ldr	r3, [pc, #128]	; (8000878 <GPIO_ClockControl+0x134>)
 80007f8:	695a      	ldr	r2, [r3, #20]
 80007fa:	4b1f      	ldr	r3, [pc, #124]	; (8000878 <GPIO_ClockControl+0x134>)
 80007fc:	4924      	ldr	r1, [pc, #144]	; (8000890 <GPIO_ClockControl+0x14c>)
 80007fe:	400a      	ands	r2, r1
 8000800:	615a      	str	r2, [r3, #20]
}
 8000802:	e035      	b.n	8000870 <GPIO_ClockControl+0x12c>
		else if (pGPIO==GPIOB){
 8000804:	687b      	ldr	r3, [r7, #4]
 8000806:	4a1d      	ldr	r2, [pc, #116]	; (800087c <GPIO_ClockControl+0x138>)
 8000808:	4293      	cmp	r3, r2
 800080a:	d106      	bne.n	800081a <GPIO_ClockControl+0xd6>
			GPIOB_DisableClock();
 800080c:	4b1a      	ldr	r3, [pc, #104]	; (8000878 <GPIO_ClockControl+0x134>)
 800080e:	695a      	ldr	r2, [r3, #20]
 8000810:	4b19      	ldr	r3, [pc, #100]	; (8000878 <GPIO_ClockControl+0x134>)
 8000812:	4920      	ldr	r1, [pc, #128]	; (8000894 <GPIO_ClockControl+0x150>)
 8000814:	400a      	ands	r2, r1
 8000816:	615a      	str	r2, [r3, #20]
}
 8000818:	e02a      	b.n	8000870 <GPIO_ClockControl+0x12c>
		else if (pGPIO==GPIOC){
 800081a:	687b      	ldr	r3, [r7, #4]
 800081c:	4a18      	ldr	r2, [pc, #96]	; (8000880 <GPIO_ClockControl+0x13c>)
 800081e:	4293      	cmp	r3, r2
 8000820:	d106      	bne.n	8000830 <GPIO_ClockControl+0xec>
			GPIOC_DisableClock();
 8000822:	4b15      	ldr	r3, [pc, #84]	; (8000878 <GPIO_ClockControl+0x134>)
 8000824:	695a      	ldr	r2, [r3, #20]
 8000826:	4b14      	ldr	r3, [pc, #80]	; (8000878 <GPIO_ClockControl+0x134>)
 8000828:	491b      	ldr	r1, [pc, #108]	; (8000898 <GPIO_ClockControl+0x154>)
 800082a:	400a      	ands	r2, r1
 800082c:	615a      	str	r2, [r3, #20]
}
 800082e:	e01f      	b.n	8000870 <GPIO_ClockControl+0x12c>
		else if (pGPIO==GPIOD){
 8000830:	687b      	ldr	r3, [r7, #4]
 8000832:	4a14      	ldr	r2, [pc, #80]	; (8000884 <GPIO_ClockControl+0x140>)
 8000834:	4293      	cmp	r3, r2
 8000836:	d106      	bne.n	8000846 <GPIO_ClockControl+0x102>
			GPIOD_DisableClock();
 8000838:	4b0f      	ldr	r3, [pc, #60]	; (8000878 <GPIO_ClockControl+0x134>)
 800083a:	695a      	ldr	r2, [r3, #20]
 800083c:	4b0e      	ldr	r3, [pc, #56]	; (8000878 <GPIO_ClockControl+0x134>)
 800083e:	4917      	ldr	r1, [pc, #92]	; (800089c <GPIO_ClockControl+0x158>)
 8000840:	400a      	ands	r2, r1
 8000842:	615a      	str	r2, [r3, #20]
}
 8000844:	e014      	b.n	8000870 <GPIO_ClockControl+0x12c>
		else if (pGPIO==GPIOE){
 8000846:	687b      	ldr	r3, [r7, #4]
 8000848:	4a0f      	ldr	r2, [pc, #60]	; (8000888 <GPIO_ClockControl+0x144>)
 800084a:	4293      	cmp	r3, r2
 800084c:	d106      	bne.n	800085c <GPIO_ClockControl+0x118>
			GPIOE_DisableClock();
 800084e:	4b0a      	ldr	r3, [pc, #40]	; (8000878 <GPIO_ClockControl+0x134>)
 8000850:	695a      	ldr	r2, [r3, #20]
 8000852:	4b09      	ldr	r3, [pc, #36]	; (8000878 <GPIO_ClockControl+0x134>)
 8000854:	4912      	ldr	r1, [pc, #72]	; (80008a0 <GPIO_ClockControl+0x15c>)
 8000856:	400a      	ands	r2, r1
 8000858:	615a      	str	r2, [r3, #20]
}
 800085a:	e009      	b.n	8000870 <GPIO_ClockControl+0x12c>
		else if (pGPIO==GPIOF){
 800085c:	687b      	ldr	r3, [r7, #4]
 800085e:	4a0b      	ldr	r2, [pc, #44]	; (800088c <GPIO_ClockControl+0x148>)
 8000860:	4293      	cmp	r3, r2
 8000862:	d105      	bne.n	8000870 <GPIO_ClockControl+0x12c>
			GPIOF_DisableClock();
 8000864:	4b04      	ldr	r3, [pc, #16]	; (8000878 <GPIO_ClockControl+0x134>)
 8000866:	695a      	ldr	r2, [r3, #20]
 8000868:	4b03      	ldr	r3, [pc, #12]	; (8000878 <GPIO_ClockControl+0x134>)
 800086a:	490e      	ldr	r1, [pc, #56]	; (80008a4 <GPIO_ClockControl+0x160>)
 800086c:	400a      	ands	r2, r1
 800086e:	615a      	str	r2, [r3, #20]
}
 8000870:	46c0      	nop			; (mov r8, r8)
 8000872:	46bd      	mov	sp, r7
 8000874:	b002      	add	sp, #8
 8000876:	bd80      	pop	{r7, pc}
 8000878:	40021000 	.word	0x40021000
 800087c:	48000400 	.word	0x48000400
 8000880:	48000800 	.word	0x48000800
 8000884:	48000c00 	.word	0x48000c00
 8000888:	48001000 	.word	0x48001000
 800088c:	48001400 	.word	0x48001400
 8000890:	fffdffff 	.word	0xfffdffff
 8000894:	fffbffff 	.word	0xfffbffff
 8000898:	fff7ffff 	.word	0xfff7ffff
 800089c:	ffefffff 	.word	0xffefffff
 80008a0:	ffdfffff 	.word	0xffdfffff
 80008a4:	ffbfffff 	.word	0xffbfffff

080008a8 <GPIO_PinInit>:
/*********GPIO pin initialization*************/
void GPIO_PinInit(GPIO_PinHandle_t *GPIO_PinHandle){
 80008a8:	b5b0      	push	{r4, r5, r7, lr}
 80008aa:	b084      	sub	sp, #16
 80008ac:	af00      	add	r7, sp, #0
 80008ae:	6078      	str	r0, [r7, #4]
	//local variables used for temporary values in operations
	uint8_t temp1;
	uint8_t temp2;

	//enable GPIO port clock
	GPIO_ClockControl(GPIO_PinHandle->pGPIO,ENABLE);
 80008b0:	687b      	ldr	r3, [r7, #4]
 80008b2:	681b      	ldr	r3, [r3, #0]
 80008b4:	2101      	movs	r1, #1
 80008b6:	0018      	movs	r0, r3
 80008b8:	f7ff ff44 	bl	8000744 <GPIO_ClockControl>

	//configure MODE: if not interrupt, mode is input/output/analog/alternate function
	if ((GPIO_PinHandle->GPIO_PinConfig.GPIO_PinMode)<=GPIO_ANA){
 80008bc:	687b      	ldr	r3, [r7, #4]
 80008be:	795b      	ldrb	r3, [r3, #5]
 80008c0:	2b03      	cmp	r3, #3
 80008c2:	d81f      	bhi.n	8000904 <GPIO_PinInit+0x5c>
		// first,reset the 2 bits related to pin.ex:pin number 1 is for MODER bits 2 and 3. 3<<2*pin is 3<<2 aka 1100b.so MODER&=(~1100)=x..x00xx
		GPIO_PinHandle->pGPIO->MODER &= (~(3<<(2*GPIO_PinHandle->GPIO_PinConfig.GPIO_PinNumber))); //I guess I can use 3 instead of 0x3
 80008c4:	687b      	ldr	r3, [r7, #4]
 80008c6:	681b      	ldr	r3, [r3, #0]
 80008c8:	681a      	ldr	r2, [r3, #0]
 80008ca:	687b      	ldr	r3, [r7, #4]
 80008cc:	791b      	ldrb	r3, [r3, #4]
 80008ce:	005b      	lsls	r3, r3, #1
 80008d0:	2103      	movs	r1, #3
 80008d2:	4099      	lsls	r1, r3
 80008d4:	000b      	movs	r3, r1
 80008d6:	43db      	mvns	r3, r3
 80008d8:	0019      	movs	r1, r3
 80008da:	687b      	ldr	r3, [r7, #4]
 80008dc:	681b      	ldr	r3, [r3, #0]
 80008de:	400a      	ands	r2, r1
 80008e0:	601a      	str	r2, [r3, #0]
		//now set
		GPIO_PinHandle->pGPIO->MODER |= (GPIO_PinHandle->GPIO_PinConfig.GPIO_PinMode<<(2*GPIO_PinHandle->GPIO_PinConfig.GPIO_PinNumber));
 80008e2:	687b      	ldr	r3, [r7, #4]
 80008e4:	681b      	ldr	r3, [r3, #0]
 80008e6:	681a      	ldr	r2, [r3, #0]
 80008e8:	687b      	ldr	r3, [r7, #4]
 80008ea:	795b      	ldrb	r3, [r3, #5]
 80008ec:	0019      	movs	r1, r3
 80008ee:	687b      	ldr	r3, [r7, #4]
 80008f0:	791b      	ldrb	r3, [r3, #4]
 80008f2:	005b      	lsls	r3, r3, #1
 80008f4:	4099      	lsls	r1, r3
 80008f6:	000b      	movs	r3, r1
 80008f8:	0019      	movs	r1, r3
 80008fa:	687b      	ldr	r3, [r7, #4]
 80008fc:	681b      	ldr	r3, [r3, #0]
 80008fe:	430a      	orrs	r2, r1
 8000900:	601a      	str	r2, [r3, #0]
 8000902:	e0af      	b.n	8000a64 <GPIO_PinInit+0x1bc>
	}
	else{ //interrupts
		//Configure the edge trigger (EXTI FTSR and RTSR). EXTI line "y" is for pins "y"; example, EXTI15 is for GPIOA15..GPIOF15
		if ((GPIO_PinHandle->GPIO_PinConfig.GPIO_PinMode)==GPIO_FALL_TRIG){
 8000904:	687b      	ldr	r3, [r7, #4]
 8000906:	795b      	ldrb	r3, [r3, #5]
 8000908:	2b04      	cmp	r3, #4
 800090a:	d117      	bne.n	800093c <GPIO_PinInit+0x94>
			//set falling edge trigger
			EXTI->FTSR |= (1<<GPIO_PinHandle->GPIO_PinConfig.GPIO_PinNumber);
 800090c:	4ba5      	ldr	r3, [pc, #660]	; (8000ba4 <GPIO_PinInit+0x2fc>)
 800090e:	68da      	ldr	r2, [r3, #12]
 8000910:	687b      	ldr	r3, [r7, #4]
 8000912:	791b      	ldrb	r3, [r3, #4]
 8000914:	0019      	movs	r1, r3
 8000916:	2301      	movs	r3, #1
 8000918:	408b      	lsls	r3, r1
 800091a:	0019      	movs	r1, r3
 800091c:	4ba1      	ldr	r3, [pc, #644]	; (8000ba4 <GPIO_PinInit+0x2fc>)
 800091e:	430a      	orrs	r2, r1
 8000920:	60da      	str	r2, [r3, #12]
			//clear rising edge trigger!
			EXTI->RTSR &= ~(1<<GPIO_PinHandle->GPIO_PinConfig.GPIO_PinNumber);
 8000922:	4ba0      	ldr	r3, [pc, #640]	; (8000ba4 <GPIO_PinInit+0x2fc>)
 8000924:	689a      	ldr	r2, [r3, #8]
 8000926:	687b      	ldr	r3, [r7, #4]
 8000928:	791b      	ldrb	r3, [r3, #4]
 800092a:	0019      	movs	r1, r3
 800092c:	2301      	movs	r3, #1
 800092e:	408b      	lsls	r3, r1
 8000930:	43db      	mvns	r3, r3
 8000932:	0019      	movs	r1, r3
 8000934:	4b9b      	ldr	r3, [pc, #620]	; (8000ba4 <GPIO_PinInit+0x2fc>)
 8000936:	400a      	ands	r2, r1
 8000938:	609a      	str	r2, [r3, #8]
 800093a:	e035      	b.n	80009a8 <GPIO_PinInit+0x100>
		}
		else if ((GPIO_PinHandle->GPIO_PinConfig.GPIO_PinMode)==GPIO_RISE_TRIG){
 800093c:	687b      	ldr	r3, [r7, #4]
 800093e:	795b      	ldrb	r3, [r3, #5]
 8000940:	2b05      	cmp	r3, #5
 8000942:	d117      	bne.n	8000974 <GPIO_PinInit+0xcc>
			//set rising edge trigger
			EXTI->RTSR |= (1<<GPIO_PinHandle->GPIO_PinConfig.GPIO_PinNumber);
 8000944:	4b97      	ldr	r3, [pc, #604]	; (8000ba4 <GPIO_PinInit+0x2fc>)
 8000946:	689a      	ldr	r2, [r3, #8]
 8000948:	687b      	ldr	r3, [r7, #4]
 800094a:	791b      	ldrb	r3, [r3, #4]
 800094c:	0019      	movs	r1, r3
 800094e:	2301      	movs	r3, #1
 8000950:	408b      	lsls	r3, r1
 8000952:	0019      	movs	r1, r3
 8000954:	4b93      	ldr	r3, [pc, #588]	; (8000ba4 <GPIO_PinInit+0x2fc>)
 8000956:	430a      	orrs	r2, r1
 8000958:	609a      	str	r2, [r3, #8]
			//clear falling edge trigger!
			EXTI->FTSR &= ~(1<<GPIO_PinHandle->GPIO_PinConfig.GPIO_PinNumber);
 800095a:	4b92      	ldr	r3, [pc, #584]	; (8000ba4 <GPIO_PinInit+0x2fc>)
 800095c:	68da      	ldr	r2, [r3, #12]
 800095e:	687b      	ldr	r3, [r7, #4]
 8000960:	791b      	ldrb	r3, [r3, #4]
 8000962:	0019      	movs	r1, r3
 8000964:	2301      	movs	r3, #1
 8000966:	408b      	lsls	r3, r1
 8000968:	43db      	mvns	r3, r3
 800096a:	0019      	movs	r1, r3
 800096c:	4b8d      	ldr	r3, [pc, #564]	; (8000ba4 <GPIO_PinInit+0x2fc>)
 800096e:	400a      	ands	r2, r1
 8000970:	60da      	str	r2, [r3, #12]
 8000972:	e019      	b.n	80009a8 <GPIO_PinInit+0x100>
		}
		else if ((GPIO_PinHandle->GPIO_PinConfig.GPIO_PinMode)==GPIO_FALLRISE_TRIG){
 8000974:	687b      	ldr	r3, [r7, #4]
 8000976:	795b      	ldrb	r3, [r3, #5]
 8000978:	2b06      	cmp	r3, #6
 800097a:	d115      	bne.n	80009a8 <GPIO_PinInit+0x100>
			//set both falling and rising edge triggers
			EXTI->FTSR |= (1<<GPIO_PinHandle->GPIO_PinConfig.GPIO_PinNumber);
 800097c:	4b89      	ldr	r3, [pc, #548]	; (8000ba4 <GPIO_PinInit+0x2fc>)
 800097e:	68da      	ldr	r2, [r3, #12]
 8000980:	687b      	ldr	r3, [r7, #4]
 8000982:	791b      	ldrb	r3, [r3, #4]
 8000984:	0019      	movs	r1, r3
 8000986:	2301      	movs	r3, #1
 8000988:	408b      	lsls	r3, r1
 800098a:	0019      	movs	r1, r3
 800098c:	4b85      	ldr	r3, [pc, #532]	; (8000ba4 <GPIO_PinInit+0x2fc>)
 800098e:	430a      	orrs	r2, r1
 8000990:	60da      	str	r2, [r3, #12]
			EXTI->RTSR |= (1<<GPIO_PinHandle->GPIO_PinConfig.GPIO_PinNumber);
 8000992:	4b84      	ldr	r3, [pc, #528]	; (8000ba4 <GPIO_PinInit+0x2fc>)
 8000994:	689a      	ldr	r2, [r3, #8]
 8000996:	687b      	ldr	r3, [r7, #4]
 8000998:	791b      	ldrb	r3, [r3, #4]
 800099a:	0019      	movs	r1, r3
 800099c:	2301      	movs	r3, #1
 800099e:	408b      	lsls	r3, r1
 80009a0:	0019      	movs	r1, r3
 80009a2:	4b80      	ldr	r3, [pc, #512]	; (8000ba4 <GPIO_PinInit+0x2fc>)
 80009a4:	430a      	orrs	r2, r1
 80009a6:	609a      	str	r2, [r3, #8]
		}

		//EXTICR: select the GPIO for the interruption on corresponding EXTI line through EXTICR registers (every allows just one, so it's a decision)
		//EXTICR0:for GPIO pins 0-3. Blocks of 4 bits to select A-F.EXTICR1: for GPIO pins 4-7. Blocks of 4 bits to select A-F. And so on
		//if GPIOD10-->EXTICR3 (block1,that is,from bit4) because EXTICR1 is for pins 0-3, CR2 pins 4-7 and so on. GPIOD--> 010
		temp1 = GPIO_PinHandle->GPIO_PinConfig.GPIO_PinNumber/4; //to know which EXTICR
 80009a8:	687b      	ldr	r3, [r7, #4]
 80009aa:	791a      	ldrb	r2, [r3, #4]
 80009ac:	200f      	movs	r0, #15
 80009ae:	183b      	adds	r3, r7, r0
 80009b0:	0892      	lsrs	r2, r2, #2
 80009b2:	701a      	strb	r2, [r3, #0]
		temp2 = GPIO_PinHandle->GPIO_PinConfig.GPIO_PinNumber%4;//to know the block within EXTICR
 80009b4:	687b      	ldr	r3, [r7, #4]
 80009b6:	791a      	ldrb	r2, [r3, #4]
 80009b8:	230e      	movs	r3, #14
 80009ba:	18fb      	adds	r3, r7, r3
 80009bc:	2103      	movs	r1, #3
 80009be:	400a      	ands	r2, r1
 80009c0:	701a      	strb	r2, [r3, #0]
		//enable SYSCFG clock and configure the correspondingEXTICR
		SYSCFG_EnableClock();
 80009c2:	4b79      	ldr	r3, [pc, #484]	; (8000ba8 <GPIO_PinInit+0x300>)
 80009c4:	699a      	ldr	r2, [r3, #24]
 80009c6:	4b78      	ldr	r3, [pc, #480]	; (8000ba8 <GPIO_PinInit+0x300>)
 80009c8:	2101      	movs	r1, #1
 80009ca:	430a      	orrs	r2, r1
 80009cc:	619a      	str	r2, [r3, #24]
		SYSCFG->EXTICR[temp1] |= ((GPIO_PORT_TO_NUMBER(GPIO_PinHandle->pGPIO))<< (4*temp2) );
 80009ce:	4a77      	ldr	r2, [pc, #476]	; (8000bac <GPIO_PinInit+0x304>)
 80009d0:	183b      	adds	r3, r7, r0
 80009d2:	781b      	ldrb	r3, [r3, #0]
 80009d4:	3302      	adds	r3, #2
 80009d6:	009b      	lsls	r3, r3, #2
 80009d8:	589a      	ldr	r2, [r3, r2]
 80009da:	687b      	ldr	r3, [r7, #4]
 80009dc:	6819      	ldr	r1, [r3, #0]
 80009de:	2390      	movs	r3, #144	; 0x90
 80009e0:	05db      	lsls	r3, r3, #23
 80009e2:	4299      	cmp	r1, r3
 80009e4:	d024      	beq.n	8000a30 <GPIO_PinInit+0x188>
 80009e6:	687b      	ldr	r3, [r7, #4]
 80009e8:	681b      	ldr	r3, [r3, #0]
 80009ea:	4971      	ldr	r1, [pc, #452]	; (8000bb0 <GPIO_PinInit+0x308>)
 80009ec:	428b      	cmp	r3, r1
 80009ee:	d01d      	beq.n	8000a2c <GPIO_PinInit+0x184>
 80009f0:	687b      	ldr	r3, [r7, #4]
 80009f2:	681b      	ldr	r3, [r3, #0]
 80009f4:	496f      	ldr	r1, [pc, #444]	; (8000bb4 <GPIO_PinInit+0x30c>)
 80009f6:	428b      	cmp	r3, r1
 80009f8:	d016      	beq.n	8000a28 <GPIO_PinInit+0x180>
 80009fa:	687b      	ldr	r3, [r7, #4]
 80009fc:	681b      	ldr	r3, [r3, #0]
 80009fe:	496e      	ldr	r1, [pc, #440]	; (8000bb8 <GPIO_PinInit+0x310>)
 8000a00:	428b      	cmp	r3, r1
 8000a02:	d00f      	beq.n	8000a24 <GPIO_PinInit+0x17c>
 8000a04:	687b      	ldr	r3, [r7, #4]
 8000a06:	681b      	ldr	r3, [r3, #0]
 8000a08:	496c      	ldr	r1, [pc, #432]	; (8000bbc <GPIO_PinInit+0x314>)
 8000a0a:	428b      	cmp	r3, r1
 8000a0c:	d008      	beq.n	8000a20 <GPIO_PinInit+0x178>
 8000a0e:	687b      	ldr	r3, [r7, #4]
 8000a10:	681b      	ldr	r3, [r3, #0]
 8000a12:	496b      	ldr	r1, [pc, #428]	; (8000bc0 <GPIO_PinInit+0x318>)
 8000a14:	428b      	cmp	r3, r1
 8000a16:	d101      	bne.n	8000a1c <GPIO_PinInit+0x174>
 8000a18:	2305      	movs	r3, #5
 8000a1a:	e00a      	b.n	8000a32 <GPIO_PinInit+0x18a>
 8000a1c:	2300      	movs	r3, #0
 8000a1e:	e008      	b.n	8000a32 <GPIO_PinInit+0x18a>
 8000a20:	2304      	movs	r3, #4
 8000a22:	e006      	b.n	8000a32 <GPIO_PinInit+0x18a>
 8000a24:	2303      	movs	r3, #3
 8000a26:	e004      	b.n	8000a32 <GPIO_PinInit+0x18a>
 8000a28:	2302      	movs	r3, #2
 8000a2a:	e002      	b.n	8000a32 <GPIO_PinInit+0x18a>
 8000a2c:	2301      	movs	r3, #1
 8000a2e:	e000      	b.n	8000a32 <GPIO_PinInit+0x18a>
 8000a30:	2300      	movs	r3, #0
 8000a32:	210e      	movs	r1, #14
 8000a34:	1879      	adds	r1, r7, r1
 8000a36:	7809      	ldrb	r1, [r1, #0]
 8000a38:	0089      	lsls	r1, r1, #2
 8000a3a:	408b      	lsls	r3, r1
 8000a3c:	0018      	movs	r0, r3
 8000a3e:	495b      	ldr	r1, [pc, #364]	; (8000bac <GPIO_PinInit+0x304>)
 8000a40:	230f      	movs	r3, #15
 8000a42:	18fb      	adds	r3, r7, r3
 8000a44:	781b      	ldrb	r3, [r3, #0]
 8000a46:	4302      	orrs	r2, r0
 8000a48:	3302      	adds	r3, #2
 8000a4a:	009b      	lsls	r3, r3, #2
 8000a4c:	505a      	str	r2, [r3, r1]

		//ENABLE EXTI interrupt by means of interrupt mask register
		EXTI->IMR |= (1<<GPIO_PinHandle->GPIO_PinConfig.GPIO_PinNumber);
 8000a4e:	4b55      	ldr	r3, [pc, #340]	; (8000ba4 <GPIO_PinInit+0x2fc>)
 8000a50:	681a      	ldr	r2, [r3, #0]
 8000a52:	687b      	ldr	r3, [r7, #4]
 8000a54:	791b      	ldrb	r3, [r3, #4]
 8000a56:	0019      	movs	r1, r3
 8000a58:	2301      	movs	r3, #1
 8000a5a:	408b      	lsls	r3, r1
 8000a5c:	0019      	movs	r1, r3
 8000a5e:	4b51      	ldr	r3, [pc, #324]	; (8000ba4 <GPIO_PinInit+0x2fc>)
 8000a60:	430a      	orrs	r2, r1
 8000a62:	601a      	str	r2, [r3, #0]
		/*Check specific functions for the configuration on processor side: NVIC (nested vector interrupt controller)*/
	}

	//OUTPUT TYPE. TBD:don't do if !=output mode?
	// first,reset the related bit
	GPIO_PinHandle->pGPIO->OTYPER &= (~(1<<GPIO_PinHandle->GPIO_PinConfig.GPIO_PinNumber));
 8000a64:	687b      	ldr	r3, [r7, #4]
 8000a66:	681b      	ldr	r3, [r3, #0]
 8000a68:	685a      	ldr	r2, [r3, #4]
 8000a6a:	687b      	ldr	r3, [r7, #4]
 8000a6c:	791b      	ldrb	r3, [r3, #4]
 8000a6e:	0019      	movs	r1, r3
 8000a70:	2301      	movs	r3, #1
 8000a72:	408b      	lsls	r3, r1
 8000a74:	43db      	mvns	r3, r3
 8000a76:	0019      	movs	r1, r3
 8000a78:	687b      	ldr	r3, [r7, #4]
 8000a7a:	681b      	ldr	r3, [r3, #0]
 8000a7c:	400a      	ands	r2, r1
 8000a7e:	605a      	str	r2, [r3, #4]
	//now set
	GPIO_PinHandle->pGPIO->OTYPER |= (GPIO_PinHandle->GPIO_PinConfig.GPIO_PinOutType<<(GPIO_PinHandle->GPIO_PinConfig.GPIO_PinNumber));
 8000a80:	687b      	ldr	r3, [r7, #4]
 8000a82:	681b      	ldr	r3, [r3, #0]
 8000a84:	685a      	ldr	r2, [r3, #4]
 8000a86:	687b      	ldr	r3, [r7, #4]
 8000a88:	799b      	ldrb	r3, [r3, #6]
 8000a8a:	0019      	movs	r1, r3
 8000a8c:	687b      	ldr	r3, [r7, #4]
 8000a8e:	791b      	ldrb	r3, [r3, #4]
 8000a90:	4099      	lsls	r1, r3
 8000a92:	000b      	movs	r3, r1
 8000a94:	0019      	movs	r1, r3
 8000a96:	687b      	ldr	r3, [r7, #4]
 8000a98:	681b      	ldr	r3, [r3, #0]
 8000a9a:	430a      	orrs	r2, r1
 8000a9c:	605a      	str	r2, [r3, #4]

	//OUTPUT SPEED. TBD:don't do if !=output mode?
	// first,reset the related bits
	GPIO_PinHandle->pGPIO->OSPEEDR &= (~(3<<(2*GPIO_PinHandle->GPIO_PinConfig.GPIO_PinNumber)));
 8000a9e:	687b      	ldr	r3, [r7, #4]
 8000aa0:	681b      	ldr	r3, [r3, #0]
 8000aa2:	689a      	ldr	r2, [r3, #8]
 8000aa4:	687b      	ldr	r3, [r7, #4]
 8000aa6:	791b      	ldrb	r3, [r3, #4]
 8000aa8:	005b      	lsls	r3, r3, #1
 8000aaa:	2103      	movs	r1, #3
 8000aac:	4099      	lsls	r1, r3
 8000aae:	000b      	movs	r3, r1
 8000ab0:	43db      	mvns	r3, r3
 8000ab2:	0019      	movs	r1, r3
 8000ab4:	687b      	ldr	r3, [r7, #4]
 8000ab6:	681b      	ldr	r3, [r3, #0]
 8000ab8:	400a      	ands	r2, r1
 8000aba:	609a      	str	r2, [r3, #8]
	//now set
	GPIO_PinHandle->pGPIO->OSPEEDR |= (GPIO_PinHandle->GPIO_PinConfig.GPIO_PinOutSpeed<<(2*GPIO_PinHandle->GPIO_PinConfig.GPIO_PinNumber));
 8000abc:	687b      	ldr	r3, [r7, #4]
 8000abe:	681b      	ldr	r3, [r3, #0]
 8000ac0:	689a      	ldr	r2, [r3, #8]
 8000ac2:	687b      	ldr	r3, [r7, #4]
 8000ac4:	79db      	ldrb	r3, [r3, #7]
 8000ac6:	0019      	movs	r1, r3
 8000ac8:	687b      	ldr	r3, [r7, #4]
 8000aca:	791b      	ldrb	r3, [r3, #4]
 8000acc:	005b      	lsls	r3, r3, #1
 8000ace:	4099      	lsls	r1, r3
 8000ad0:	000b      	movs	r3, r1
 8000ad2:	0019      	movs	r1, r3
 8000ad4:	687b      	ldr	r3, [r7, #4]
 8000ad6:	681b      	ldr	r3, [r3, #0]
 8000ad8:	430a      	orrs	r2, r1
 8000ada:	609a      	str	r2, [r3, #8]

	//PULL UP/DOWN
	// first,reset the related bits
	GPIO_PinHandle->pGPIO->PUPDR &= (~(3<<(2*GPIO_PinHandle->GPIO_PinConfig.GPIO_PinNumber)));
 8000adc:	687b      	ldr	r3, [r7, #4]
 8000ade:	681b      	ldr	r3, [r3, #0]
 8000ae0:	68da      	ldr	r2, [r3, #12]
 8000ae2:	687b      	ldr	r3, [r7, #4]
 8000ae4:	791b      	ldrb	r3, [r3, #4]
 8000ae6:	005b      	lsls	r3, r3, #1
 8000ae8:	2103      	movs	r1, #3
 8000aea:	4099      	lsls	r1, r3
 8000aec:	000b      	movs	r3, r1
 8000aee:	43db      	mvns	r3, r3
 8000af0:	0019      	movs	r1, r3
 8000af2:	687b      	ldr	r3, [r7, #4]
 8000af4:	681b      	ldr	r3, [r3, #0]
 8000af6:	400a      	ands	r2, r1
 8000af8:	60da      	str	r2, [r3, #12]
	//now set
	GPIO_PinHandle->pGPIO->PUPDR |= (GPIO_PinHandle->GPIO_PinConfig.GPIO_PinPullUpDown<<(2*GPIO_PinHandle->GPIO_PinConfig.GPIO_PinNumber));
 8000afa:	687b      	ldr	r3, [r7, #4]
 8000afc:	681b      	ldr	r3, [r3, #0]
 8000afe:	68da      	ldr	r2, [r3, #12]
 8000b00:	687b      	ldr	r3, [r7, #4]
 8000b02:	7a1b      	ldrb	r3, [r3, #8]
 8000b04:	0019      	movs	r1, r3
 8000b06:	687b      	ldr	r3, [r7, #4]
 8000b08:	791b      	ldrb	r3, [r3, #4]
 8000b0a:	005b      	lsls	r3, r3, #1
 8000b0c:	4099      	lsls	r1, r3
 8000b0e:	000b      	movs	r3, r1
 8000b10:	0019      	movs	r1, r3
 8000b12:	687b      	ldr	r3, [r7, #4]
 8000b14:	681b      	ldr	r3, [r3, #0]
 8000b16:	430a      	orrs	r2, r1
 8000b18:	60da      	str	r2, [r3, #12]

	//ALTERNATE FUNCTION
	if (GPIO_PinHandle->GPIO_PinConfig.GPIO_PinMode==GPIO_ALTFUN){
 8000b1a:	687b      	ldr	r3, [r7, #4]
 8000b1c:	795b      	ldrb	r3, [r3, #5]
 8000b1e:	2b02      	cmp	r3, #2
 8000b20:	d13b      	bne.n	8000b9a <GPIO_PinInit+0x2f2>
		//as there are 2 registers, low is for pins 0-7 and high for 8-15.in our struct,AFR[2].We need to know where to actuate
		temp1 = GPIO_PinHandle->GPIO_PinConfig.GPIO_PinNumber / 8 ; //ex: pin 7-->reg 0,byte=7(last);pin12 --> reg1, byte=4
 8000b22:	687b      	ldr	r3, [r7, #4]
 8000b24:	791a      	ldrb	r2, [r3, #4]
 8000b26:	240f      	movs	r4, #15
 8000b28:	193b      	adds	r3, r7, r4
 8000b2a:	08d2      	lsrs	r2, r2, #3
 8000b2c:	701a      	strb	r2, [r3, #0]
		temp2 = GPIO_PinHandle->GPIO_PinConfig.GPIO_PinNumber % 8;
 8000b2e:	687b      	ldr	r3, [r7, #4]
 8000b30:	791a      	ldrb	r2, [r3, #4]
 8000b32:	250e      	movs	r5, #14
 8000b34:	197b      	adds	r3, r7, r5
 8000b36:	2107      	movs	r1, #7
 8000b38:	400a      	ands	r2, r1
 8000b3a:	701a      	strb	r2, [r3, #0]
		// first,reset the related bits. in this case, 4. ~1111 is ~0x0F
		GPIO_PinHandle->pGPIO->AFR[temp1] &= (~(0xF<<(4*temp2)));
 8000b3c:	687b      	ldr	r3, [r7, #4]
 8000b3e:	681b      	ldr	r3, [r3, #0]
 8000b40:	193a      	adds	r2, r7, r4
 8000b42:	7812      	ldrb	r2, [r2, #0]
 8000b44:	3208      	adds	r2, #8
 8000b46:	0092      	lsls	r2, r2, #2
 8000b48:	58d1      	ldr	r1, [r2, r3]
 8000b4a:	197b      	adds	r3, r7, r5
 8000b4c:	781b      	ldrb	r3, [r3, #0]
 8000b4e:	009b      	lsls	r3, r3, #2
 8000b50:	220f      	movs	r2, #15
 8000b52:	409a      	lsls	r2, r3
 8000b54:	0013      	movs	r3, r2
 8000b56:	43db      	mvns	r3, r3
 8000b58:	0018      	movs	r0, r3
 8000b5a:	687b      	ldr	r3, [r7, #4]
 8000b5c:	681b      	ldr	r3, [r3, #0]
 8000b5e:	193a      	adds	r2, r7, r4
 8000b60:	7812      	ldrb	r2, [r2, #0]
 8000b62:	4001      	ands	r1, r0
 8000b64:	3208      	adds	r2, #8
 8000b66:	0092      	lsls	r2, r2, #2
 8000b68:	50d1      	str	r1, [r2, r3]
		//now set
		GPIO_PinHandle->pGPIO->AFR[temp1] |= (GPIO_PinHandle->GPIO_PinConfig.GPIO_PinAlterFunc<<(4*temp2));
 8000b6a:	687b      	ldr	r3, [r7, #4]
 8000b6c:	681b      	ldr	r3, [r3, #0]
 8000b6e:	193a      	adds	r2, r7, r4
 8000b70:	7812      	ldrb	r2, [r2, #0]
 8000b72:	3208      	adds	r2, #8
 8000b74:	0092      	lsls	r2, r2, #2
 8000b76:	58d1      	ldr	r1, [r2, r3]
 8000b78:	687b      	ldr	r3, [r7, #4]
 8000b7a:	7a5b      	ldrb	r3, [r3, #9]
 8000b7c:	001a      	movs	r2, r3
 8000b7e:	197b      	adds	r3, r7, r5
 8000b80:	781b      	ldrb	r3, [r3, #0]
 8000b82:	009b      	lsls	r3, r3, #2
 8000b84:	409a      	lsls	r2, r3
 8000b86:	0013      	movs	r3, r2
 8000b88:	0018      	movs	r0, r3
 8000b8a:	687b      	ldr	r3, [r7, #4]
 8000b8c:	681b      	ldr	r3, [r3, #0]
 8000b8e:	193a      	adds	r2, r7, r4
 8000b90:	7812      	ldrb	r2, [r2, #0]
 8000b92:	4301      	orrs	r1, r0
 8000b94:	3208      	adds	r2, #8
 8000b96:	0092      	lsls	r2, r2, #2
 8000b98:	50d1      	str	r1, [r2, r3]
	}
}
 8000b9a:	46c0      	nop			; (mov r8, r8)
 8000b9c:	46bd      	mov	sp, r7
 8000b9e:	b004      	add	sp, #16
 8000ba0:	bdb0      	pop	{r4, r5, r7, pc}
 8000ba2:	46c0      	nop			; (mov r8, r8)
 8000ba4:	40010400 	.word	0x40010400
 8000ba8:	40021000 	.word	0x40021000
 8000bac:	40010000 	.word	0x40010000
 8000bb0:	48000400 	.word	0x48000400
 8000bb4:	48000800 	.word	0x48000800
 8000bb8:	48000c00 	.word	0x48000c00
 8000bbc:	48001000 	.word	0x48001000
 8000bc0:	48001400 	.word	0x48001400

08000bc4 <GPIO_WritePin>:
uint16_t GPIO_ReadPort(GPIO_RegStruct_t *pGPIO){
	return (uint16_t)pGPIO->IDR;
}

/**************************Write to output (pin or port)************************/
void GPIO_WritePin(GPIO_RegStruct_t *pGPIO, uint8_t pin, uint8_t output){
 8000bc4:	b580      	push	{r7, lr}
 8000bc6:	b082      	sub	sp, #8
 8000bc8:	af00      	add	r7, sp, #0
 8000bca:	6078      	str	r0, [r7, #4]
 8000bcc:	0008      	movs	r0, r1
 8000bce:	0011      	movs	r1, r2
 8000bd0:	1cfb      	adds	r3, r7, #3
 8000bd2:	1c02      	adds	r2, r0, #0
 8000bd4:	701a      	strb	r2, [r3, #0]
 8000bd6:	1cbb      	adds	r3, r7, #2
 8000bd8:	1c0a      	adds	r2, r1, #0
 8000bda:	701a      	strb	r2, [r3, #0]
	//do not do first clear the related bit and then set.we don't want to modify the output
	//I prefer to do an if statement than using intermediate variables to clear and set
	if (output==1){
 8000bdc:	1cbb      	adds	r3, r7, #2
 8000bde:	781b      	ldrb	r3, [r3, #0]
 8000be0:	2b01      	cmp	r3, #1
 8000be2:	d10a      	bne.n	8000bfa <GPIO_WritePin+0x36>
		pGPIO->ODR |= (1<<pin);
 8000be4:	687b      	ldr	r3, [r7, #4]
 8000be6:	695b      	ldr	r3, [r3, #20]
 8000be8:	1cfa      	adds	r2, r7, #3
 8000bea:	7812      	ldrb	r2, [r2, #0]
 8000bec:	2101      	movs	r1, #1
 8000bee:	4091      	lsls	r1, r2
 8000bf0:	000a      	movs	r2, r1
 8000bf2:	431a      	orrs	r2, r3
 8000bf4:	687b      	ldr	r3, [r7, #4]
 8000bf6:	615a      	str	r2, [r3, #20]
	}
	else { //0
		pGPIO->ODR &= (~(1<<pin));
	}

}
 8000bf8:	e00a      	b.n	8000c10 <GPIO_WritePin+0x4c>
		pGPIO->ODR &= (~(1<<pin));
 8000bfa:	687b      	ldr	r3, [r7, #4]
 8000bfc:	695b      	ldr	r3, [r3, #20]
 8000bfe:	1cfa      	adds	r2, r7, #3
 8000c00:	7812      	ldrb	r2, [r2, #0]
 8000c02:	2101      	movs	r1, #1
 8000c04:	4091      	lsls	r1, r2
 8000c06:	000a      	movs	r2, r1
 8000c08:	43d2      	mvns	r2, r2
 8000c0a:	401a      	ands	r2, r3
 8000c0c:	687b      	ldr	r3, [r7, #4]
 8000c0e:	615a      	str	r2, [r3, #20]
}
 8000c10:	46c0      	nop			; (mov r8, r8)
 8000c12:	46bd      	mov	sp, r7
 8000c14:	b002      	add	sp, #8
 8000c16:	bd80      	pop	{r7, pc}

08000c18 <GPIO_IRQ_EnableDisable>:
	pGPIO->ODR ^= (1<<pin); //^ is XOR. 1^0=0;0^1=1;1^1=0;0^0=0. So x^1 = !x
}

/*************************NVIC functions for IRQ*****************************************/
/*Enable or disable an IRQ*/
void GPIO_IRQ_EnableDisable(uint8_t IRQ_Number, uint8_t EnableDisable){
 8000c18:	b580      	push	{r7, lr}
 8000c1a:	b082      	sub	sp, #8
 8000c1c:	af00      	add	r7, sp, #0
 8000c1e:	0002      	movs	r2, r0
 8000c20:	1dfb      	adds	r3, r7, #7
 8000c22:	701a      	strb	r2, [r3, #0]
 8000c24:	1dbb      	adds	r3, r7, #6
 8000c26:	1c0a      	adds	r2, r1, #0
 8000c28:	701a      	strb	r2, [r3, #0]
	if(EnableDisable == ENABLE){ //enable by means of ISER
 8000c2a:	1dbb      	adds	r3, r7, #6
 8000c2c:	781b      	ldrb	r3, [r3, #0]
 8000c2e:	2b01      	cmp	r3, #1
 8000c30:	d10b      	bne.n	8000c4a <GPIO_IRQ_EnableDisable+0x32>
		*NVIC_ISER |= ( 1 << IRQ_Number);
 8000c32:	4b0d      	ldr	r3, [pc, #52]	; (8000c68 <GPIO_IRQ_EnableDisable+0x50>)
 8000c34:	681a      	ldr	r2, [r3, #0]
 8000c36:	1dfb      	adds	r3, r7, #7
 8000c38:	781b      	ldrb	r3, [r3, #0]
 8000c3a:	2101      	movs	r1, #1
 8000c3c:	4099      	lsls	r1, r3
 8000c3e:	000b      	movs	r3, r1
 8000c40:	0019      	movs	r1, r3
 8000c42:	4b09      	ldr	r3, [pc, #36]	; (8000c68 <GPIO_IRQ_EnableDisable+0x50>)
 8000c44:	430a      	orrs	r2, r1
 8000c46:	601a      	str	r2, [r3, #0]
	}
	else { //disable by means of ICER
		*NVIC_ICER |= ( 1 << IRQ_Number);
	}

}
 8000c48:	e00a      	b.n	8000c60 <GPIO_IRQ_EnableDisable+0x48>
		*NVIC_ICER |= ( 1 << IRQ_Number);
 8000c4a:	4b08      	ldr	r3, [pc, #32]	; (8000c6c <GPIO_IRQ_EnableDisable+0x54>)
 8000c4c:	681a      	ldr	r2, [r3, #0]
 8000c4e:	1dfb      	adds	r3, r7, #7
 8000c50:	781b      	ldrb	r3, [r3, #0]
 8000c52:	2101      	movs	r1, #1
 8000c54:	4099      	lsls	r1, r3
 8000c56:	000b      	movs	r3, r1
 8000c58:	0019      	movs	r1, r3
 8000c5a:	4b04      	ldr	r3, [pc, #16]	; (8000c6c <GPIO_IRQ_EnableDisable+0x54>)
 8000c5c:	430a      	orrs	r2, r1
 8000c5e:	601a      	str	r2, [r3, #0]
}
 8000c60:	46c0      	nop			; (mov r8, r8)
 8000c62:	46bd      	mov	sp, r7
 8000c64:	b002      	add	sp, #8
 8000c66:	bd80      	pop	{r7, pc}
 8000c68:	e000e100 	.word	0xe000e100
 8000c6c:	e000e180 	.word	0xe000e180

08000c70 <GPIO_IRQ_Handling>:
	//Clear the block and set. Better if I use intermediate variables instead of modifying many times the IPR
	uint32_t tempIPR = ((*(NVIC_IPR_BASE + numberIPR))&~(0xFF<<blockIPR));
	tempIPR |= (IRQ_Priority<<(8*blockIPR+6)); //6 is because bits 0-5 are not editable, only bits 6-7 count.
	*(NVIC_IPR_BASE + numberIPR) = tempIPR;
}
void GPIO_IRQ_Handling(uint8_t pin){
 8000c70:	b580      	push	{r7, lr}
 8000c72:	b082      	sub	sp, #8
 8000c74:	af00      	add	r7, sp, #0
 8000c76:	0002      	movs	r2, r0
 8000c78:	1dfb      	adds	r3, r7, #7
 8000c7a:	701a      	strb	r2, [r3, #0]
	/*ISRs (handlers) are actually application specific and implement/override(weak) handlers defined in startup*/
	/*GPIO_IRQ_Handling will be called inside the ISR handler.*/
	//Clear the pending register of the EXTI(interrupt handling depends upon the peripheral).PR of processor is automatically cleared (I think)
	if ((EXTI->PR) & (1<<pin)){ //if PR[pin]==1
 8000c7c:	4b0b      	ldr	r3, [pc, #44]	; (8000cac <GPIO_IRQ_Handling+0x3c>)
 8000c7e:	695b      	ldr	r3, [r3, #20]
 8000c80:	1dfa      	adds	r2, r7, #7
 8000c82:	7812      	ldrb	r2, [r2, #0]
 8000c84:	2101      	movs	r1, #1
 8000c86:	4091      	lsls	r1, r2
 8000c88:	000a      	movs	r2, r1
 8000c8a:	4013      	ands	r3, r2
 8000c8c:	d00a      	beq.n	8000ca4 <GPIO_IRQ_Handling+0x34>
		(EXTI->PR) |= (1<<pin); //write 1 to clear the pending register
 8000c8e:	4b07      	ldr	r3, [pc, #28]	; (8000cac <GPIO_IRQ_Handling+0x3c>)
 8000c90:	695a      	ldr	r2, [r3, #20]
 8000c92:	1dfb      	adds	r3, r7, #7
 8000c94:	781b      	ldrb	r3, [r3, #0]
 8000c96:	2101      	movs	r1, #1
 8000c98:	4099      	lsls	r1, r3
 8000c9a:	000b      	movs	r3, r1
 8000c9c:	0019      	movs	r1, r3
 8000c9e:	4b03      	ldr	r3, [pc, #12]	; (8000cac <GPIO_IRQ_Handling+0x3c>)
 8000ca0:	430a      	orrs	r2, r1
 8000ca2:	615a      	str	r2, [r3, #20]
	}

}
 8000ca4:	46c0      	nop			; (mov r8, r8)
 8000ca6:	46bd      	mov	sp, r7
 8000ca8:	b002      	add	sp, #8
 8000caa:	bd80      	pop	{r7, pc}
 8000cac:	40010400 	.word	0x40010400

08000cb0 <I2C_ClockControl>:
static void I2C_TCR_handler(I2C_Handle_t *pI2Chandle); //when NBYTES>255

static void I2C_SlaveAddress(I2C_Handle_t *pI2Chandle); //set slave address

/*Enable or disable I2C peripheral clock*/
void I2C_ClockControl(I2C_Handle_t *pI2Chandle, uint8_t EnableDisable){
 8000cb0:	b580      	push	{r7, lr}
 8000cb2:	b082      	sub	sp, #8
 8000cb4:	af00      	add	r7, sp, #0
 8000cb6:	6078      	str	r0, [r7, #4]
 8000cb8:	000a      	movs	r2, r1
 8000cba:	1cfb      	adds	r3, r7, #3
 8000cbc:	701a      	strb	r2, [r3, #0]
	if (EnableDisable == ENABLE) {
 8000cbe:	1cfb      	adds	r3, r7, #3
 8000cc0:	781b      	ldrb	r3, [r3, #0]
 8000cc2:	2b01      	cmp	r3, #1
 8000cc4:	d119      	bne.n	8000cfa <I2C_ClockControl+0x4a>
		if (pI2Chandle->pI2C == I2C1){
 8000cc6:	687b      	ldr	r3, [r7, #4]
 8000cc8:	681b      	ldr	r3, [r3, #0]
 8000cca:	4a19      	ldr	r2, [pc, #100]	; (8000d30 <I2C_ClockControl+0x80>)
 8000ccc:	4293      	cmp	r3, r2
 8000cce:	d107      	bne.n	8000ce0 <I2C_ClockControl+0x30>
			I2C1_EnableClock();
 8000cd0:	4b18      	ldr	r3, [pc, #96]	; (8000d34 <I2C_ClockControl+0x84>)
 8000cd2:	69da      	ldr	r2, [r3, #28]
 8000cd4:	4b17      	ldr	r3, [pc, #92]	; (8000d34 <I2C_ClockControl+0x84>)
 8000cd6:	2180      	movs	r1, #128	; 0x80
 8000cd8:	0389      	lsls	r1, r1, #14
 8000cda:	430a      	orrs	r2, r1
 8000cdc:	61da      	str	r2, [r3, #28]
		}
		else if (pI2Chandle->pI2C == I2C2){
			I2C2_DisableClock();
		}
	}
}
 8000cde:	e023      	b.n	8000d28 <I2C_ClockControl+0x78>
		else if (pI2Chandle->pI2C == I2C2){
 8000ce0:	687b      	ldr	r3, [r7, #4]
 8000ce2:	681b      	ldr	r3, [r3, #0]
 8000ce4:	4a14      	ldr	r2, [pc, #80]	; (8000d38 <I2C_ClockControl+0x88>)
 8000ce6:	4293      	cmp	r3, r2
 8000ce8:	d11e      	bne.n	8000d28 <I2C_ClockControl+0x78>
			I2C2_EnableClock();
 8000cea:	4b12      	ldr	r3, [pc, #72]	; (8000d34 <I2C_ClockControl+0x84>)
 8000cec:	69da      	ldr	r2, [r3, #28]
 8000cee:	4b11      	ldr	r3, [pc, #68]	; (8000d34 <I2C_ClockControl+0x84>)
 8000cf0:	2180      	movs	r1, #128	; 0x80
 8000cf2:	03c9      	lsls	r1, r1, #15
 8000cf4:	430a      	orrs	r2, r1
 8000cf6:	61da      	str	r2, [r3, #28]
}
 8000cf8:	e016      	b.n	8000d28 <I2C_ClockControl+0x78>
		if (pI2Chandle->pI2C == I2C1){
 8000cfa:	687b      	ldr	r3, [r7, #4]
 8000cfc:	681b      	ldr	r3, [r3, #0]
 8000cfe:	4a0c      	ldr	r2, [pc, #48]	; (8000d30 <I2C_ClockControl+0x80>)
 8000d00:	4293      	cmp	r3, r2
 8000d02:	d106      	bne.n	8000d12 <I2C_ClockControl+0x62>
			I2C1_DisableClock();
 8000d04:	4b0b      	ldr	r3, [pc, #44]	; (8000d34 <I2C_ClockControl+0x84>)
 8000d06:	69da      	ldr	r2, [r3, #28]
 8000d08:	4b0a      	ldr	r3, [pc, #40]	; (8000d34 <I2C_ClockControl+0x84>)
 8000d0a:	490c      	ldr	r1, [pc, #48]	; (8000d3c <I2C_ClockControl+0x8c>)
 8000d0c:	400a      	ands	r2, r1
 8000d0e:	61da      	str	r2, [r3, #28]
}
 8000d10:	e00a      	b.n	8000d28 <I2C_ClockControl+0x78>
		else if (pI2Chandle->pI2C == I2C2){
 8000d12:	687b      	ldr	r3, [r7, #4]
 8000d14:	681b      	ldr	r3, [r3, #0]
 8000d16:	4a08      	ldr	r2, [pc, #32]	; (8000d38 <I2C_ClockControl+0x88>)
 8000d18:	4293      	cmp	r3, r2
 8000d1a:	d105      	bne.n	8000d28 <I2C_ClockControl+0x78>
			I2C2_DisableClock();
 8000d1c:	4b05      	ldr	r3, [pc, #20]	; (8000d34 <I2C_ClockControl+0x84>)
 8000d1e:	69da      	ldr	r2, [r3, #28]
 8000d20:	4b04      	ldr	r3, [pc, #16]	; (8000d34 <I2C_ClockControl+0x84>)
 8000d22:	4907      	ldr	r1, [pc, #28]	; (8000d40 <I2C_ClockControl+0x90>)
 8000d24:	400a      	ands	r2, r1
 8000d26:	61da      	str	r2, [r3, #28]
}
 8000d28:	46c0      	nop			; (mov r8, r8)
 8000d2a:	46bd      	mov	sp, r7
 8000d2c:	b002      	add	sp, #8
 8000d2e:	bd80      	pop	{r7, pc}
 8000d30:	40005400 	.word	0x40005400
 8000d34:	40021000 	.word	0x40021000
 8000d38:	40005800 	.word	0x40005800
 8000d3c:	ffdfffff 	.word	0xffdfffff
 8000d40:	ffbfffff 	.word	0xffbfffff

08000d44 <I2C_Init>:

/*Initialization, which enables clock but not the peripheral yet(this is done by I2C_EnableDisable)*/
void I2C_Init(I2C_Handle_t *pI2Chandle){
 8000d44:	b580      	push	{r7, lr}
 8000d46:	b082      	sub	sp, #8
 8000d48:	af00      	add	r7, sp, #0
 8000d4a:	6078      	str	r0, [r7, #4]
	//enable I2C peripheral clock
	I2C_ClockControl(pI2Chandle,ENABLE);
 8000d4c:	687b      	ldr	r3, [r7, #4]
 8000d4e:	2101      	movs	r1, #1
 8000d50:	0018      	movs	r0, r3
 8000d52:	f7ff ffad 	bl	8000cb0 <I2C_ClockControl>
	/*Configure TIMINGR. Use I2C_Timing_Config_Tool_Vx.y.z.xls or check out values in 26.4.11
	 * I2C_TIMINGR register configuration examples.
	 * This includes clock speed, I2C mode (standard,fast...)
	 * In case of knowing PRESC,SCLDEL,SDADEL,SCLH and SCLL: use my I2C_Master_TimingR
	 */
	pI2Chandle->pI2C->I2C_TIMINGR = pI2Chandle->I2C_Config.I2C_Timing;
 8000d56:	687b      	ldr	r3, [r7, #4]
 8000d58:	681b      	ldr	r3, [r3, #0]
 8000d5a:	687a      	ldr	r2, [r7, #4]
 8000d5c:	6892      	ldr	r2, [r2, #8]
 8000d5e:	611a      	str	r2, [r3, #16]

	/*//TX buffer as a dynamic array
	pI2Chandle->I2C_Comm_t.TX_buffer = malloc(pI2Chandle->I2C_Comm_t.TX_length);*/
}
 8000d60:	46c0      	nop			; (mov r8, r8)
 8000d62:	46bd      	mov	sp, r7
 8000d64:	b002      	add	sp, #8
 8000d66:	bd80      	pop	{r7, pc}

08000d68 <I2C_EnableDisable>:

/*I2C control: enable/disable */
void I2C_EnableDisable(I2C_Handle_t *pI2Chandle, uint8_t EnableDisable){
 8000d68:	b580      	push	{r7, lr}
 8000d6a:	b082      	sub	sp, #8
 8000d6c:	af00      	add	r7, sp, #0
 8000d6e:	6078      	str	r0, [r7, #4]
 8000d70:	000a      	movs	r2, r1
 8000d72:	1cfb      	adds	r3, r7, #3
 8000d74:	701a      	strb	r2, [r3, #0]
	if (EnableDisable == ENABLE){
 8000d76:	1cfb      	adds	r3, r7, #3
 8000d78:	781b      	ldrb	r3, [r3, #0]
 8000d7a:	2b01      	cmp	r3, #1
 8000d7c:	d10b      	bne.n	8000d96 <I2C_EnableDisable+0x2e>
		pI2Chandle->pI2C->I2C_CR1 |= (1<<I2C_CR1_PE);
 8000d7e:	687b      	ldr	r3, [r7, #4]
 8000d80:	681b      	ldr	r3, [r3, #0]
 8000d82:	681a      	ldr	r2, [r3, #0]
 8000d84:	687b      	ldr	r3, [r7, #4]
 8000d86:	681b      	ldr	r3, [r3, #0]
 8000d88:	2101      	movs	r1, #1
 8000d8a:	430a      	orrs	r2, r1
 8000d8c:	601a      	str	r2, [r3, #0]
		pI2Chandle->I2C_Comm_t.communication_state = I2C_READY;
 8000d8e:	687b      	ldr	r3, [r7, #4]
 8000d90:	2200      	movs	r2, #0
 8000d92:	771a      	strb	r2, [r3, #28]
	}
	else { //0
		pI2Chandle->pI2C->I2C_CR1 &= ~(1<<I2C_CR1_PE);
	}
}
 8000d94:	e007      	b.n	8000da6 <I2C_EnableDisable+0x3e>
		pI2Chandle->pI2C->I2C_CR1 &= ~(1<<I2C_CR1_PE);
 8000d96:	687b      	ldr	r3, [r7, #4]
 8000d98:	681b      	ldr	r3, [r3, #0]
 8000d9a:	681a      	ldr	r2, [r3, #0]
 8000d9c:	687b      	ldr	r3, [r7, #4]
 8000d9e:	681b      	ldr	r3, [r3, #0]
 8000da0:	2101      	movs	r1, #1
 8000da2:	438a      	bics	r2, r1
 8000da4:	601a      	str	r2, [r3, #0]
}
 8000da6:	46c0      	nop			; (mov r8, r8)
 8000da8:	46bd      	mov	sp, r7
 8000daa:	b002      	add	sp, #8
 8000dac:	bd80      	pop	{r7, pc}
	...

08000db0 <I2C_IRQ_EnableDisable>:
	}
	pI2Chandle->pI2C->I2C_CR1 |= (1<<I2C_CR1_PE);
}

/*IRQ Configuration and ISR handling*/
void I2C_IRQ_EnableDisable(uint8_t IRQ_Number, uint8_t EnableDisable){ //IRQ_I2C1(combined with eXTI line23)/IRQ_I2C2
 8000db0:	b580      	push	{r7, lr}
 8000db2:	b082      	sub	sp, #8
 8000db4:	af00      	add	r7, sp, #0
 8000db6:	0002      	movs	r2, r0
 8000db8:	1dfb      	adds	r3, r7, #7
 8000dba:	701a      	strb	r2, [r3, #0]
 8000dbc:	1dbb      	adds	r3, r7, #6
 8000dbe:	1c0a      	adds	r2, r1, #0
 8000dc0:	701a      	strb	r2, [r3, #0]
	if(EnableDisable == ENABLE){ //enable by means of ISER
 8000dc2:	1dbb      	adds	r3, r7, #6
 8000dc4:	781b      	ldrb	r3, [r3, #0]
 8000dc6:	2b01      	cmp	r3, #1
 8000dc8:	d10b      	bne.n	8000de2 <I2C_IRQ_EnableDisable+0x32>
		*NVIC_ISER |= ( 1 << IRQ_Number);
 8000dca:	4b0d      	ldr	r3, [pc, #52]	; (8000e00 <I2C_IRQ_EnableDisable+0x50>)
 8000dcc:	681a      	ldr	r2, [r3, #0]
 8000dce:	1dfb      	adds	r3, r7, #7
 8000dd0:	781b      	ldrb	r3, [r3, #0]
 8000dd2:	2101      	movs	r1, #1
 8000dd4:	4099      	lsls	r1, r3
 8000dd6:	000b      	movs	r3, r1
 8000dd8:	0019      	movs	r1, r3
 8000dda:	4b09      	ldr	r3, [pc, #36]	; (8000e00 <I2C_IRQ_EnableDisable+0x50>)
 8000ddc:	430a      	orrs	r2, r1
 8000dde:	601a      	str	r2, [r3, #0]
	}
	else { //disable by means of ICER
		*NVIC_ICER |= ( 1 << IRQ_Number);
	}
}
 8000de0:	e00a      	b.n	8000df8 <I2C_IRQ_EnableDisable+0x48>
		*NVIC_ICER |= ( 1 << IRQ_Number);
 8000de2:	4b08      	ldr	r3, [pc, #32]	; (8000e04 <I2C_IRQ_EnableDisable+0x54>)
 8000de4:	681a      	ldr	r2, [r3, #0]
 8000de6:	1dfb      	adds	r3, r7, #7
 8000de8:	781b      	ldrb	r3, [r3, #0]
 8000dea:	2101      	movs	r1, #1
 8000dec:	4099      	lsls	r1, r3
 8000dee:	000b      	movs	r3, r1
 8000df0:	0019      	movs	r1, r3
 8000df2:	4b04      	ldr	r3, [pc, #16]	; (8000e04 <I2C_IRQ_EnableDisable+0x54>)
 8000df4:	430a      	orrs	r2, r1
 8000df6:	601a      	str	r2, [r3, #0]
}
 8000df8:	46c0      	nop			; (mov r8, r8)
 8000dfa:	46bd      	mov	sp, r7
 8000dfc:	b002      	add	sp, #8
 8000dfe:	bd80      	pop	{r7, pc}
 8000e00:	e000e100 	.word	0xe000e100
 8000e04:	e000e180 	.word	0xe000e180

08000e08 <I2C_IRQ_Handling>:

void I2C_IRQ_Priority(uint8_t IRQ_Number, uint32_t IRQ_Priority){
	//if required, reuse the same function in spi (better a common function in stm32f091rct6.h?)
}

void I2C_IRQ_Handling(I2C_Handle_t *pI2Chandle){
 8000e08:	b580      	push	{r7, lr}
 8000e0a:	b082      	sub	sp, #8
 8000e0c:	af00      	add	r7, sp, #0
 8000e0e:	6078      	str	r0, [r7, #4]
	//Call the handler related to the interrupt if register is true as long as it is enabled
	//TXIS: Transmit Interrupt Status
	if ( (pI2Chandle->pI2C->I2C_CR1 & (1<<I2C_CR1_TXIE)) && (pI2Chandle->pI2C->I2C_ISR & (1<<I2C_ISR_TXIS)) ){
 8000e10:	687b      	ldr	r3, [r7, #4]
 8000e12:	681b      	ldr	r3, [r3, #0]
 8000e14:	681b      	ldr	r3, [r3, #0]
 8000e16:	2202      	movs	r2, #2
 8000e18:	4013      	ands	r3, r2
 8000e1a:	d00a      	beq.n	8000e32 <I2C_IRQ_Handling+0x2a>
 8000e1c:	687b      	ldr	r3, [r7, #4]
 8000e1e:	681b      	ldr	r3, [r3, #0]
 8000e20:	699b      	ldr	r3, [r3, #24]
 8000e22:	2202      	movs	r2, #2
 8000e24:	4013      	ands	r3, r2
 8000e26:	d004      	beq.n	8000e32 <I2C_IRQ_Handling+0x2a>
		I2C_TXIS_handler(pI2Chandle);
 8000e28:	687b      	ldr	r3, [r7, #4]
 8000e2a:	0018      	movs	r0, r3
 8000e2c:	f000 f9a2 	bl	8001174 <I2C_TXIS_handler>
		return;
 8000e30:	e055      	b.n	8000ede <I2C_IRQ_Handling+0xd6>
	}
	//RXNE: Receive data register not empty
	if ( (pI2Chandle->pI2C->I2C_CR1 & (1<<I2C_CR1_RXIE)) && (pI2Chandle->pI2C->I2C_ISR & (1<<I2C_ISR_RXNE)) ){
 8000e32:	687b      	ldr	r3, [r7, #4]
 8000e34:	681b      	ldr	r3, [r3, #0]
 8000e36:	681b      	ldr	r3, [r3, #0]
 8000e38:	2204      	movs	r2, #4
 8000e3a:	4013      	ands	r3, r2
 8000e3c:	d00a      	beq.n	8000e54 <I2C_IRQ_Handling+0x4c>
 8000e3e:	687b      	ldr	r3, [r7, #4]
 8000e40:	681b      	ldr	r3, [r3, #0]
 8000e42:	699b      	ldr	r3, [r3, #24]
 8000e44:	2204      	movs	r2, #4
 8000e46:	4013      	ands	r3, r2
 8000e48:	d004      	beq.n	8000e54 <I2C_IRQ_Handling+0x4c>
		I2C_RXNE_handler(pI2Chandle);
 8000e4a:	687b      	ldr	r3, [r7, #4]
 8000e4c:	0018      	movs	r0, r3
 8000e4e:	f000 f9b4 	bl	80011ba <I2C_RXNE_handler>
		return;
 8000e52:	e044      	b.n	8000ede <I2C_IRQ_Handling+0xd6>
	}
	//BERR: bus error
	if ( (pI2Chandle->pI2C->I2C_CR1 & (1<<I2C_CR1_ERRIE)) && (pI2Chandle->pI2C->I2C_ISR & (1<<I2C_ISR_BERR)) ){
 8000e54:	687b      	ldr	r3, [r7, #4]
 8000e56:	681b      	ldr	r3, [r3, #0]
 8000e58:	681b      	ldr	r3, [r3, #0]
 8000e5a:	2280      	movs	r2, #128	; 0x80
 8000e5c:	4013      	ands	r3, r2
 8000e5e:	d00b      	beq.n	8000e78 <I2C_IRQ_Handling+0x70>
 8000e60:	687b      	ldr	r3, [r7, #4]
 8000e62:	681b      	ldr	r3, [r3, #0]
 8000e64:	699a      	ldr	r2, [r3, #24]
 8000e66:	2380      	movs	r3, #128	; 0x80
 8000e68:	005b      	lsls	r3, r3, #1
 8000e6a:	4013      	ands	r3, r2
 8000e6c:	d004      	beq.n	8000e78 <I2C_IRQ_Handling+0x70>
		I2C_BERR_handler(pI2Chandle);
 8000e6e:	687b      	ldr	r3, [r7, #4]
 8000e70:	0018      	movs	r0, r3
 8000e72:	f000 f9cb 	bl	800120c <I2C_BERR_handler>
		return;
 8000e76:	e032      	b.n	8000ede <I2C_IRQ_Handling+0xd6>
	}
	//TC: Transfer complete interrupt
	if ( (pI2Chandle->pI2C->I2C_CR1 & (1<<I2C_CR1_TCIE)) && (pI2Chandle->pI2C->I2C_ISR & (1<<I2C_ISR_TC)) ){
 8000e78:	687b      	ldr	r3, [r7, #4]
 8000e7a:	681b      	ldr	r3, [r3, #0]
 8000e7c:	681b      	ldr	r3, [r3, #0]
 8000e7e:	2240      	movs	r2, #64	; 0x40
 8000e80:	4013      	ands	r3, r2
 8000e82:	d00a      	beq.n	8000e9a <I2C_IRQ_Handling+0x92>
 8000e84:	687b      	ldr	r3, [r7, #4]
 8000e86:	681b      	ldr	r3, [r3, #0]
 8000e88:	699b      	ldr	r3, [r3, #24]
 8000e8a:	2240      	movs	r2, #64	; 0x40
 8000e8c:	4013      	ands	r3, r2
 8000e8e:	d004      	beq.n	8000e9a <I2C_IRQ_Handling+0x92>
		I2C_TC_handler(pI2Chandle);
 8000e90:	687b      	ldr	r3, [r7, #4]
 8000e92:	0018      	movs	r0, r3
 8000e94:	f000 f9fc 	bl	8001290 <I2C_TC_handler>
		return;
 8000e98:	e021      	b.n	8000ede <I2C_IRQ_Handling+0xd6>
	}
	//TCR: Transfer complete reload (enabled by TCIE too)
	if ( (pI2Chandle->pI2C->I2C_CR1 & (1<<I2C_CR1_TCIE)) && (pI2Chandle->pI2C->I2C_ISR & (1<<I2C_ISR_TCR)) ){
 8000e9a:	687b      	ldr	r3, [r7, #4]
 8000e9c:	681b      	ldr	r3, [r3, #0]
 8000e9e:	681b      	ldr	r3, [r3, #0]
 8000ea0:	2240      	movs	r2, #64	; 0x40
 8000ea2:	4013      	ands	r3, r2
 8000ea4:	d00a      	beq.n	8000ebc <I2C_IRQ_Handling+0xb4>
 8000ea6:	687b      	ldr	r3, [r7, #4]
 8000ea8:	681b      	ldr	r3, [r3, #0]
 8000eaa:	699b      	ldr	r3, [r3, #24]
 8000eac:	2280      	movs	r2, #128	; 0x80
 8000eae:	4013      	ands	r3, r2
 8000eb0:	d004      	beq.n	8000ebc <I2C_IRQ_Handling+0xb4>
		I2C_TCR_handler(pI2Chandle);
 8000eb2:	687b      	ldr	r3, [r7, #4]
 8000eb4:	0018      	movs	r0, r3
 8000eb6:	f000 f9ff 	bl	80012b8 <I2C_TCR_handler>
		return;
 8000eba:	e010      	b.n	8000ede <I2C_IRQ_Handling+0xd6>
	}
	//STOP: Stop detection Interrupt
	if ( (pI2Chandle->pI2C->I2C_CR1 & (1<<I2C_CR1_STOPIE)) && (pI2Chandle->pI2C->I2C_ISR & (1<<I2C_ISR_STOPF)) ){
 8000ebc:	687b      	ldr	r3, [r7, #4]
 8000ebe:	681b      	ldr	r3, [r3, #0]
 8000ec0:	681b      	ldr	r3, [r3, #0]
 8000ec2:	2220      	movs	r2, #32
 8000ec4:	4013      	ands	r3, r2
 8000ec6:	d00a      	beq.n	8000ede <I2C_IRQ_Handling+0xd6>
 8000ec8:	687b      	ldr	r3, [r7, #4]
 8000eca:	681b      	ldr	r3, [r3, #0]
 8000ecc:	699b      	ldr	r3, [r3, #24]
 8000ece:	2220      	movs	r2, #32
 8000ed0:	4013      	ands	r3, r2
 8000ed2:	d004      	beq.n	8000ede <I2C_IRQ_Handling+0xd6>
		I2C_STOP_handler(pI2Chandle);
 8000ed4:	687b      	ldr	r3, [r7, #4]
 8000ed6:	0018      	movs	r0, r3
 8000ed8:	f000 f9b3 	bl	8001242 <I2C_STOP_handler>
		return;
 8000edc:	46c0      	nop			; (mov r8, r8)
	}
}
 8000ede:	46bd      	mov	sp, r7
 8000ee0:	b002      	add	sp, #8
 8000ee2:	bd80      	pop	{r7, pc}

08000ee4 <I2C_SlaveAddress>:

static void I2C_SlaveAddress(I2C_Handle_t *pI2Chandle){
 8000ee4:	b580      	push	{r7, lr}
 8000ee6:	b082      	sub	sp, #8
 8000ee8:	af00      	add	r7, sp, #0
 8000eea:	6078      	str	r0, [r7, #4]
	//slave address (7-bit or 10-bit)
	if (pI2Chandle->I2C_Config.I2C_AddressMode == I2C_ADDRESS_MODE_7BIT){ //7-bit
 8000eec:	687b      	ldr	r3, [r7, #4]
 8000eee:	795b      	ldrb	r3, [r3, #5]
 8000ef0:	2b00      	cmp	r3, #0
 8000ef2:	d10d      	bne.n	8000f10 <I2C_SlaveAddress+0x2c>
		//mask to 7 bits, move 1 bit to left (7-bits, so from b1 to b7) and set
		pI2Chandle->pI2C->I2C_CR2 |= ((pI2Chandle->I2C_Comm_t.I2C_SlaveAddress & 0x7F)<<1);
 8000ef4:	687b      	ldr	r3, [r7, #4]
 8000ef6:	681b      	ldr	r3, [r3, #0]
 8000ef8:	6859      	ldr	r1, [r3, #4]
 8000efa:	687b      	ldr	r3, [r7, #4]
 8000efc:	8c1b      	ldrh	r3, [r3, #32]
 8000efe:	005b      	lsls	r3, r3, #1
 8000f00:	001a      	movs	r2, r3
 8000f02:	23ff      	movs	r3, #255	; 0xff
 8000f04:	401a      	ands	r2, r3
 8000f06:	687b      	ldr	r3, [r7, #4]
 8000f08:	681b      	ldr	r3, [r3, #0]
 8000f0a:	430a      	orrs	r2, r1
 8000f0c:	605a      	str	r2, [r3, #4]
	}
	else { //10-bit
		//mask to 10 bits and set
		pI2Chandle->pI2C->I2C_CR2 |= (pI2Chandle->I2C_Comm_t.I2C_SlaveAddress & 0x3FF);
	}
}
 8000f0e:	e00a      	b.n	8000f26 <I2C_SlaveAddress+0x42>
		pI2Chandle->pI2C->I2C_CR2 |= (pI2Chandle->I2C_Comm_t.I2C_SlaveAddress & 0x3FF);
 8000f10:	687b      	ldr	r3, [r7, #4]
 8000f12:	681b      	ldr	r3, [r3, #0]
 8000f14:	6859      	ldr	r1, [r3, #4]
 8000f16:	687b      	ldr	r3, [r7, #4]
 8000f18:	8c1b      	ldrh	r3, [r3, #32]
 8000f1a:	059b      	lsls	r3, r3, #22
 8000f1c:	0d9a      	lsrs	r2, r3, #22
 8000f1e:	687b      	ldr	r3, [r7, #4]
 8000f20:	681b      	ldr	r3, [r3, #0]
 8000f22:	430a      	orrs	r2, r1
 8000f24:	605a      	str	r2, [r3, #4]
}
 8000f26:	46c0      	nop			; (mov r8, r8)
 8000f28:	46bd      	mov	sp, r7
 8000f2a:	b002      	add	sp, #8
 8000f2c:	bd80      	pop	{r7, pc}
	...

08000f30 <I2C_Master_Transmitter>:

void I2C_Master_Transmitter(I2C_Handle_t *pI2Chandle, uint8_t exp_bytes, uint8_t autoend){
 8000f30:	b580      	push	{r7, lr}
 8000f32:	b082      	sub	sp, #8
 8000f34:	af00      	add	r7, sp, #0
 8000f36:	6078      	str	r0, [r7, #4]
 8000f38:	0008      	movs	r0, r1
 8000f3a:	0011      	movs	r1, r2
 8000f3c:	1cfb      	adds	r3, r7, #3
 8000f3e:	1c02      	adds	r2, r0, #0
 8000f40:	701a      	strb	r2, [r3, #0]
 8000f42:	1cbb      	adds	r3, r7, #2
 8000f44:	1c0a      	adds	r2, r1, #0
 8000f46:	701a      	strb	r2, [r3, #0]
	//TX state busy + configure transmission(including interrupts) + start&address
	if (pI2Chandle->I2C_Comm_t.communication_state != (I2C_DURING_TX || I2C_DURING_RX)){
 8000f48:	687b      	ldr	r3, [r7, #4]
 8000f4a:	7f1b      	ldrb	r3, [r3, #28]
 8000f4c:	2b01      	cmp	r3, #1
 8000f4e:	d076      	beq.n	800103e <I2C_Master_Transmitter+0x10e>
		//start transmission (start+slave address) if I2C_READY,I2C_RESTART_STOP or I2C_RELOAD
		//transfer direction: master requests a write transfer (0)
		pI2Chandle->pI2C->I2C_CR2 &= ~(1<<I2C_CR2_RDWRN);
 8000f50:	687b      	ldr	r3, [r7, #4]
 8000f52:	681b      	ldr	r3, [r3, #0]
 8000f54:	685a      	ldr	r2, [r3, #4]
 8000f56:	687b      	ldr	r3, [r7, #4]
 8000f58:	681b      	ldr	r3, [r3, #0]
 8000f5a:	493b      	ldr	r1, [pc, #236]	; (8001048 <I2C_Master_Transmitter+0x118>)
 8000f5c:	400a      	ands	r2, r1
 8000f5e:	605a      	str	r2, [r3, #4]
		//slave address (7-bit or 10-bit)
		I2C_SlaveAddress(pI2Chandle);
 8000f60:	687b      	ldr	r3, [r7, #4]
 8000f62:	0018      	movs	r0, r3
 8000f64:	f7ff ffbe 	bl	8000ee4 <I2C_SlaveAddress>
		//enable TXIE,necessary for TXIS
		pI2Chandle->pI2C->I2C_CR1 |= (1<<I2C_CR1_TXIE);
 8000f68:	687b      	ldr	r3, [r7, #4]
 8000f6a:	681b      	ldr	r3, [r3, #0]
 8000f6c:	681a      	ldr	r2, [r3, #0]
 8000f6e:	687b      	ldr	r3, [r7, #4]
 8000f70:	681b      	ldr	r3, [r3, #0]
 8000f72:	2102      	movs	r1, #2
 8000f74:	430a      	orrs	r2, r1
 8000f76:	601a      	str	r2, [r3, #0]
		pI2Chandle->I2C_Comm_t.I2C_Nbytes = exp_bytes;
 8000f78:	687b      	ldr	r3, [r7, #4]
 8000f7a:	1cfa      	adds	r2, r7, #3
 8000f7c:	7812      	ldrb	r2, [r2, #0]
 8000f7e:	779a      	strb	r2, [r3, #30]
			pI2Chandle->pI2C->I2C_CR2 |= (1<<I2C_CR2_RELOAD);
			pI2Chandle->pI2C->I2C_CR1 |= (1<<I2C_CR1_TCIE); //TCIE is for both TC and TCR
		}
		else{
			//writing NBYTES clears TCR by the way.first reset NBYTES (important,8bits!) and then set them
			pI2Chandle->pI2C->I2C_CR2 &= ~(255<<I2C_CR2_NBYTES);//reset NBYTES. 0xFF=1..1
 8000f80:	687b      	ldr	r3, [r7, #4]
 8000f82:	681b      	ldr	r3, [r3, #0]
 8000f84:	685a      	ldr	r2, [r3, #4]
 8000f86:	687b      	ldr	r3, [r7, #4]
 8000f88:	681b      	ldr	r3, [r3, #0]
 8000f8a:	4930      	ldr	r1, [pc, #192]	; (800104c <I2C_Master_Transmitter+0x11c>)
 8000f8c:	400a      	ands	r2, r1
 8000f8e:	605a      	str	r2, [r3, #4]
			pI2Chandle->pI2C->I2C_CR2 |= (exp_bytes<<I2C_CR2_NBYTES); //set NBYTES
 8000f90:	687b      	ldr	r3, [r7, #4]
 8000f92:	681b      	ldr	r3, [r3, #0]
 8000f94:	685a      	ldr	r2, [r3, #4]
 8000f96:	1cfb      	adds	r3, r7, #3
 8000f98:	781b      	ldrb	r3, [r3, #0]
 8000f9a:	041b      	lsls	r3, r3, #16
 8000f9c:	0019      	movs	r1, r3
 8000f9e:	687b      	ldr	r3, [r7, #4]
 8000fa0:	681b      	ldr	r3, [r3, #0]
 8000fa2:	430a      	orrs	r2, r1
 8000fa4:	605a      	str	r2, [r3, #4]
			pI2Chandle->I2C_Comm_t.TX_length = exp_bytes;
 8000fa6:	1cfb      	adds	r3, r7, #3
 8000fa8:	781a      	ldrb	r2, [r3, #0]
 8000faa:	687b      	ldr	r3, [r7, #4]
 8000fac:	60da      	str	r2, [r3, #12]
			pI2Chandle->pI2C->I2C_CR2 &= ~(1<<I2C_CR2_RELOAD); //disable RELOAD
 8000fae:	687b      	ldr	r3, [r7, #4]
 8000fb0:	681b      	ldr	r3, [r3, #0]
 8000fb2:	685a      	ldr	r2, [r3, #4]
 8000fb4:	687b      	ldr	r3, [r7, #4]
 8000fb6:	681b      	ldr	r3, [r3, #0]
 8000fb8:	4925      	ldr	r1, [pc, #148]	; (8001050 <I2C_Master_Transmitter+0x120>)
 8000fba:	400a      	ands	r2, r1
 8000fbc:	605a      	str	r2, [r3, #4]
			 *0: software end mode: TC flag is set when NBYTES data are transferred, stretching SCL low.
			 *1: Automatic end mode: a STOP condition is automatically sent when NBYTES data are
			 *transferred.
			 *Note: This bit has no effect in slave mode or when the RELOAD bit is set.
			 */
			if (autoend){ //automatic end mode
 8000fbe:	1cbb      	adds	r3, r7, #2
 8000fc0:	781b      	ldrb	r3, [r3, #0]
 8000fc2:	2b00      	cmp	r3, #0
 8000fc4:	d01c      	beq.n	8001000 <I2C_Master_Transmitter+0xd0>
				pI2Chandle->I2C_Comm_t.I2C_RepeatStart = I2C_AUTOEND;
 8000fc6:	687b      	ldr	r3, [r7, #4]
 8000fc8:	2200      	movs	r2, #0
 8000fca:	775a      	strb	r2, [r3, #29]
				pI2Chandle->pI2C->I2C_CR2 |= (1<<I2C_CR2_AUTOEND);
 8000fcc:	687b      	ldr	r3, [r7, #4]
 8000fce:	681b      	ldr	r3, [r3, #0]
 8000fd0:	685a      	ldr	r2, [r3, #4]
 8000fd2:	687b      	ldr	r3, [r7, #4]
 8000fd4:	681b      	ldr	r3, [r3, #0]
 8000fd6:	2180      	movs	r1, #128	; 0x80
 8000fd8:	0489      	lsls	r1, r1, #18
 8000fda:	430a      	orrs	r2, r1
 8000fdc:	605a      	str	r2, [r3, #4]
				pI2Chandle->pI2C->I2C_CR1 |= (1<<I2C_CR1_TCIE); //to enable TC (TCIE is for both TC and TCR)
 8000fde:	687b      	ldr	r3, [r7, #4]
 8000fe0:	681b      	ldr	r3, [r3, #0]
 8000fe2:	681a      	ldr	r2, [r3, #0]
 8000fe4:	687b      	ldr	r3, [r7, #4]
 8000fe6:	681b      	ldr	r3, [r3, #0]
 8000fe8:	2140      	movs	r1, #64	; 0x40
 8000fea:	430a      	orrs	r2, r1
 8000fec:	601a      	str	r2, [r3, #0]
				pI2Chandle->pI2C->I2C_CR1 |= (1<<I2C_CR1_STOPIE); //to enable STOP detection
 8000fee:	687b      	ldr	r3, [r7, #4]
 8000ff0:	681b      	ldr	r3, [r3, #0]
 8000ff2:	681a      	ldr	r2, [r3, #0]
 8000ff4:	687b      	ldr	r3, [r7, #4]
 8000ff6:	681b      	ldr	r3, [r3, #0]
 8000ff8:	2120      	movs	r1, #32
 8000ffa:	430a      	orrs	r2, r1
 8000ffc:	601a      	str	r2, [r3, #0]
 8000ffe:	e012      	b.n	8001026 <I2C_Master_Transmitter+0xf6>
			}
			else{ //software end mode
				pI2Chandle->I2C_Comm_t.I2C_RepeatStart = I2C_REPEAT_START;
 8001000:	687b      	ldr	r3, [r7, #4]
 8001002:	2201      	movs	r2, #1
 8001004:	775a      	strb	r2, [r3, #29]
				pI2Chandle->pI2C->I2C_CR2 &= ~(1<<I2C_CR2_AUTOEND);
 8001006:	687b      	ldr	r3, [r7, #4]
 8001008:	681b      	ldr	r3, [r3, #0]
 800100a:	685a      	ldr	r2, [r3, #4]
 800100c:	687b      	ldr	r3, [r7, #4]
 800100e:	681b      	ldr	r3, [r3, #0]
 8001010:	4910      	ldr	r1, [pc, #64]	; (8001054 <I2C_Master_Transmitter+0x124>)
 8001012:	400a      	ands	r2, r1
 8001014:	605a      	str	r2, [r3, #4]
				pI2Chandle->pI2C->I2C_CR1 &= ~(1<<I2C_CR1_TCIE); //to disable TC
 8001016:	687b      	ldr	r3, [r7, #4]
 8001018:	681b      	ldr	r3, [r3, #0]
 800101a:	681a      	ldr	r2, [r3, #0]
 800101c:	687b      	ldr	r3, [r7, #4]
 800101e:	681b      	ldr	r3, [r3, #0]
 8001020:	2140      	movs	r1, #64	; 0x40
 8001022:	438a      	bics	r2, r1
 8001024:	601a      	str	r2, [r3, #0]
		}
		else if (pI2Chandle->I2C_Comm_t.communication_state == (I2C_READY || I2C_RESTART_STOP)){
			//do something extra?
		}
		*/
		pI2Chandle->I2C_Comm_t.communication_state = I2C_DURING_TX;
 8001026:	687b      	ldr	r3, [r7, #4]
 8001028:	2201      	movs	r2, #1
 800102a:	771a      	strb	r2, [r3, #28]
		//start + address. this would clear TC if it had been set (RESTART_STOP)
		//This bit is set by SW and cleared by HW after Start followed by address sequence is sent
		pI2Chandle->pI2C->I2C_CR2 |= (1<<I2C_CR2_START);
 800102c:	687b      	ldr	r3, [r7, #4]
 800102e:	681b      	ldr	r3, [r3, #0]
 8001030:	685a      	ldr	r2, [r3, #4]
 8001032:	687b      	ldr	r3, [r7, #4]
 8001034:	681b      	ldr	r3, [r3, #0]
 8001036:	2180      	movs	r1, #128	; 0x80
 8001038:	0189      	lsls	r1, r1, #6
 800103a:	430a      	orrs	r2, r1
 800103c:	605a      	str	r2, [r3, #4]
		//I2C_App_Callback(pI2Chandle, I2C_TX_STARTED);
	}

}
 800103e:	46c0      	nop			; (mov r8, r8)
 8001040:	46bd      	mov	sp, r7
 8001042:	b002      	add	sp, #8
 8001044:	bd80      	pop	{r7, pc}
 8001046:	46c0      	nop			; (mov r8, r8)
 8001048:	fffffbff 	.word	0xfffffbff
 800104c:	ff00ffff 	.word	0xff00ffff
 8001050:	feffffff 	.word	0xfeffffff
 8001054:	fdffffff 	.word	0xfdffffff

08001058 <I2C_Master_Receiver>:

void I2C_Master_Receiver(I2C_Handle_t *pI2Chandle, uint8_t exp_bytes, uint8_t autoend){
 8001058:	b580      	push	{r7, lr}
 800105a:	b082      	sub	sp, #8
 800105c:	af00      	add	r7, sp, #0
 800105e:	6078      	str	r0, [r7, #4]
 8001060:	0008      	movs	r0, r1
 8001062:	0011      	movs	r1, r2
 8001064:	1cfb      	adds	r3, r7, #3
 8001066:	1c02      	adds	r2, r0, #0
 8001068:	701a      	strb	r2, [r3, #0]
 800106a:	1cbb      	adds	r3, r7, #2
 800106c:	1c0a      	adds	r2, r1, #0
 800106e:	701a      	strb	r2, [r3, #0]
	//RX state busy + configure reception(including interrupts) + start&address
	if (pI2Chandle->I2C_Comm_t.communication_state != (I2C_DURING_TX || I2C_DURING_RX)){
 8001070:	687b      	ldr	r3, [r7, #4]
 8001072:	7f1b      	ldrb	r3, [r3, #28]
 8001074:	2b01      	cmp	r3, #1
 8001076:	d073      	beq.n	8001160 <I2C_Master_Receiver+0x108>
		//start transmission (start+slave address) if I2C_READY,I2C_RESTART_STOP or I2C_RELOAD
		//transfer direction: master requests a read transfer (1)
		pI2Chandle->pI2C->I2C_CR2 |= (1<<I2C_CR2_RDWRN);
 8001078:	687b      	ldr	r3, [r7, #4]
 800107a:	681b      	ldr	r3, [r3, #0]
 800107c:	685a      	ldr	r2, [r3, #4]
 800107e:	687b      	ldr	r3, [r7, #4]
 8001080:	681b      	ldr	r3, [r3, #0]
 8001082:	2180      	movs	r1, #128	; 0x80
 8001084:	00c9      	lsls	r1, r1, #3
 8001086:	430a      	orrs	r2, r1
 8001088:	605a      	str	r2, [r3, #4]
		//slave address (7-bit or 10-bit)
		I2C_SlaveAddress(pI2Chandle);
 800108a:	687b      	ldr	r3, [r7, #4]
 800108c:	0018      	movs	r0, r3
 800108e:	f7ff ff29 	bl	8000ee4 <I2C_SlaveAddress>
		//enable RXIE,necessary for RXNE
		pI2Chandle->pI2C->I2C_CR1 |= (1<<I2C_CR1_RXIE);
 8001092:	687b      	ldr	r3, [r7, #4]
 8001094:	681b      	ldr	r3, [r3, #0]
 8001096:	681a      	ldr	r2, [r3, #0]
 8001098:	687b      	ldr	r3, [r7, #4]
 800109a:	681b      	ldr	r3, [r3, #0]
 800109c:	2104      	movs	r1, #4
 800109e:	430a      	orrs	r2, r1
 80010a0:	601a      	str	r2, [r3, #0]
			pI2Chandle->pI2C->I2C_CR2 |= (1<<I2C_CR2_RELOAD);
			pI2Chandle->pI2C->I2C_CR1 |= (1<<I2C_CR1_TCIE); //TCIE is for both TC and TCR
		}
		else{
			//writing NBYTES clears TCR by the way.first reset NBYTES (important,8bits!) and then set them
			pI2Chandle->pI2C->I2C_CR2 &= ~(255<<I2C_CR2_NBYTES);//reset NBYTES. 0xFF=1..1
 80010a2:	687b      	ldr	r3, [r7, #4]
 80010a4:	681b      	ldr	r3, [r3, #0]
 80010a6:	685a      	ldr	r2, [r3, #4]
 80010a8:	687b      	ldr	r3, [r7, #4]
 80010aa:	681b      	ldr	r3, [r3, #0]
 80010ac:	492e      	ldr	r1, [pc, #184]	; (8001168 <I2C_Master_Receiver+0x110>)
 80010ae:	400a      	ands	r2, r1
 80010b0:	605a      	str	r2, [r3, #4]
			pI2Chandle->pI2C->I2C_CR2 |= (exp_bytes<<I2C_CR2_NBYTES); //set NBYTES
 80010b2:	687b      	ldr	r3, [r7, #4]
 80010b4:	681b      	ldr	r3, [r3, #0]
 80010b6:	685a      	ldr	r2, [r3, #4]
 80010b8:	1cfb      	adds	r3, r7, #3
 80010ba:	781b      	ldrb	r3, [r3, #0]
 80010bc:	041b      	lsls	r3, r3, #16
 80010be:	0019      	movs	r1, r3
 80010c0:	687b      	ldr	r3, [r7, #4]
 80010c2:	681b      	ldr	r3, [r3, #0]
 80010c4:	430a      	orrs	r2, r1
 80010c6:	605a      	str	r2, [r3, #4]
			pI2Chandle->I2C_Comm_t.RX_length = exp_bytes;
 80010c8:	1cfb      	adds	r3, r7, #3
 80010ca:	781a      	ldrb	r2, [r3, #0]
 80010cc:	687b      	ldr	r3, [r7, #4]
 80010ce:	615a      	str	r2, [r3, #20]
			pI2Chandle->pI2C->I2C_CR2 &= ~(1<<I2C_CR2_RELOAD); //disable RELOAD
 80010d0:	687b      	ldr	r3, [r7, #4]
 80010d2:	681b      	ldr	r3, [r3, #0]
 80010d4:	685a      	ldr	r2, [r3, #4]
 80010d6:	687b      	ldr	r3, [r7, #4]
 80010d8:	681b      	ldr	r3, [r3, #0]
 80010da:	4924      	ldr	r1, [pc, #144]	; (800116c <I2C_Master_Receiver+0x114>)
 80010dc:	400a      	ands	r2, r1
 80010de:	605a      	str	r2, [r3, #4]
			 *0: software end mode: TC flag is set when NBYTES data are transferred, stretching SCL low.
			 *1: Automatic end mode: a STOP condition is automatically sent when NBYTES data are
			 *transferred.
			 *Note: This bit has no effect in slave mode or when the RELOAD bit is set.
			 */
			if (autoend){ //automatic end mode
 80010e0:	1cbb      	adds	r3, r7, #2
 80010e2:	781b      	ldrb	r3, [r3, #0]
 80010e4:	2b00      	cmp	r3, #0
 80010e6:	d01c      	beq.n	8001122 <I2C_Master_Receiver+0xca>
				pI2Chandle->I2C_Comm_t.I2C_RepeatStart = I2C_AUTOEND;
 80010e8:	687b      	ldr	r3, [r7, #4]
 80010ea:	2200      	movs	r2, #0
 80010ec:	775a      	strb	r2, [r3, #29]
				pI2Chandle->pI2C->I2C_CR2 |= (1<<I2C_CR2_AUTOEND);
 80010ee:	687b      	ldr	r3, [r7, #4]
 80010f0:	681b      	ldr	r3, [r3, #0]
 80010f2:	685a      	ldr	r2, [r3, #4]
 80010f4:	687b      	ldr	r3, [r7, #4]
 80010f6:	681b      	ldr	r3, [r3, #0]
 80010f8:	2180      	movs	r1, #128	; 0x80
 80010fa:	0489      	lsls	r1, r1, #18
 80010fc:	430a      	orrs	r2, r1
 80010fe:	605a      	str	r2, [r3, #4]
				pI2Chandle->pI2C->I2C_CR1 |= (1<<I2C_CR1_TCIE); //to enable TC (TCIE is for both TC and TCR)
 8001100:	687b      	ldr	r3, [r7, #4]
 8001102:	681b      	ldr	r3, [r3, #0]
 8001104:	681a      	ldr	r2, [r3, #0]
 8001106:	687b      	ldr	r3, [r7, #4]
 8001108:	681b      	ldr	r3, [r3, #0]
 800110a:	2140      	movs	r1, #64	; 0x40
 800110c:	430a      	orrs	r2, r1
 800110e:	601a      	str	r2, [r3, #0]
				pI2Chandle->pI2C->I2C_CR1 |= (1<<I2C_CR1_STOPIE); //to enable STOP detection
 8001110:	687b      	ldr	r3, [r7, #4]
 8001112:	681b      	ldr	r3, [r3, #0]
 8001114:	681a      	ldr	r2, [r3, #0]
 8001116:	687b      	ldr	r3, [r7, #4]
 8001118:	681b      	ldr	r3, [r3, #0]
 800111a:	2120      	movs	r1, #32
 800111c:	430a      	orrs	r2, r1
 800111e:	601a      	str	r2, [r3, #0]
 8001120:	e012      	b.n	8001148 <I2C_Master_Receiver+0xf0>
			}
			else{ //software end mode
				pI2Chandle->I2C_Comm_t.I2C_RepeatStart = I2C_REPEAT_START;
 8001122:	687b      	ldr	r3, [r7, #4]
 8001124:	2201      	movs	r2, #1
 8001126:	775a      	strb	r2, [r3, #29]
				pI2Chandle->pI2C->I2C_CR2 &= ~(1<<I2C_CR2_AUTOEND);
 8001128:	687b      	ldr	r3, [r7, #4]
 800112a:	681b      	ldr	r3, [r3, #0]
 800112c:	685a      	ldr	r2, [r3, #4]
 800112e:	687b      	ldr	r3, [r7, #4]
 8001130:	681b      	ldr	r3, [r3, #0]
 8001132:	490f      	ldr	r1, [pc, #60]	; (8001170 <I2C_Master_Receiver+0x118>)
 8001134:	400a      	ands	r2, r1
 8001136:	605a      	str	r2, [r3, #4]
				pI2Chandle->pI2C->I2C_CR1 &= ~(1<<I2C_CR1_TCIE); //to disable TC
 8001138:	687b      	ldr	r3, [r7, #4]
 800113a:	681b      	ldr	r3, [r3, #0]
 800113c:	681a      	ldr	r2, [r3, #0]
 800113e:	687b      	ldr	r3, [r7, #4]
 8001140:	681b      	ldr	r3, [r3, #0]
 8001142:	2140      	movs	r1, #64	; 0x40
 8001144:	438a      	bics	r2, r1
 8001146:	601a      	str	r2, [r3, #0]
		}
		else if (pI2Chandle->I2C_Comm_t.communication_state == (I2C_READY || I2C_RESTART_STOP)){
			//something extra?
		}
		*/
		pI2Chandle->I2C_Comm_t.communication_state = I2C_DURING_RX;
 8001148:	687b      	ldr	r3, [r7, #4]
 800114a:	2202      	movs	r2, #2
 800114c:	771a      	strb	r2, [r3, #28]
		//start + address. this would clear TC if it had been set (RESTART_STOP)
		//This bit is set by SW and cleared by HW after Start followed by address sequence is sent
		pI2Chandle->pI2C->I2C_CR2 |= (1<<I2C_CR2_START);
 800114e:	687b      	ldr	r3, [r7, #4]
 8001150:	681b      	ldr	r3, [r3, #0]
 8001152:	685a      	ldr	r2, [r3, #4]
 8001154:	687b      	ldr	r3, [r7, #4]
 8001156:	681b      	ldr	r3, [r3, #0]
 8001158:	2180      	movs	r1, #128	; 0x80
 800115a:	0189      	lsls	r1, r1, #6
 800115c:	430a      	orrs	r2, r1
 800115e:	605a      	str	r2, [r3, #4]
		//I2C_App_Callback(pI2Chandle, I2C_RX_STARTED);
	}
}
 8001160:	46c0      	nop			; (mov r8, r8)
 8001162:	46bd      	mov	sp, r7
 8001164:	b002      	add	sp, #8
 8001166:	bd80      	pop	{r7, pc}
 8001168:	ff00ffff 	.word	0xff00ffff
 800116c:	feffffff 	.word	0xfeffffff
 8001170:	fdffffff 	.word	0xfdffffff

08001174 <I2C_TXIS_handler>:
		//bit set by SW, cleared by HW when a STOP condition is detected.Writing 0 has no effect
		pI2Chandle->pI2C->I2C_CR2 |= (1<<I2C_CR2_STOP);
	}
}

static void I2C_TXIS_handler(I2C_Handle_t *pI2Chandle){
 8001174:	b580      	push	{r7, lr}
 8001176:	b082      	sub	sp, #8
 8001178:	af00      	add	r7, sp, #0
 800117a:	6078      	str	r0, [r7, #4]
	/*TXIS set by hardware when I2C_TXDR register empty and the data to be
	*transmitted must be written in I2C_TXDR. It is cleared when the next data to be
	*sent is written in I2C_TXDR register*/
	if (pI2Chandle->I2C_Comm_t.TX_length >=1){
 800117c:	687b      	ldr	r3, [r7, #4]
 800117e:	68db      	ldr	r3, [r3, #12]
 8001180:	2b00      	cmp	r3, #0
 8001182:	d016      	beq.n	80011b2 <I2C_TXIS_handler+0x3e>
		pI2Chandle->pI2C->I2C_TXDR = *(pI2Chandle->I2C_Comm_t.TX_buffer);
 8001184:	687b      	ldr	r3, [r7, #4]
 8001186:	691b      	ldr	r3, [r3, #16]
 8001188:	781a      	ldrb	r2, [r3, #0]
 800118a:	687b      	ldr	r3, [r7, #4]
 800118c:	681b      	ldr	r3, [r3, #0]
 800118e:	629a      	str	r2, [r3, #40]	; 0x28
		pI2Chandle->I2C_Comm_t.TX_buffer++;
 8001190:	687b      	ldr	r3, [r7, #4]
 8001192:	691b      	ldr	r3, [r3, #16]
 8001194:	1c5a      	adds	r2, r3, #1
 8001196:	687b      	ldr	r3, [r7, #4]
 8001198:	611a      	str	r2, [r3, #16]
		pI2Chandle->I2C_Comm_t.TX_length--;
 800119a:	687b      	ldr	r3, [r7, #4]
 800119c:	68db      	ldr	r3, [r3, #12]
 800119e:	1e5a      	subs	r2, r3, #1
 80011a0:	687b      	ldr	r3, [r7, #4]
 80011a2:	60da      	str	r2, [r3, #12]
		/*if last byte to be send,wait until STOP or TC/TCR,depending on AUTOEND(these interrupts are handled)
		*state=WAITING_END (STOP or TC/TCR flag)
		*if NBYTES>255, I2C_RELOAD*/
		if (pI2Chandle->I2C_Comm_t.TX_length == 0){
 80011a4:	687b      	ldr	r3, [r7, #4]
 80011a6:	68db      	ldr	r3, [r3, #12]
 80011a8:	2b00      	cmp	r3, #0
 80011aa:	d102      	bne.n	80011b2 <I2C_TXIS_handler+0x3e>
			pI2Chandle->I2C_Comm_t.communication_state = I2C_WAITING_END;
 80011ac:	687b      	ldr	r3, [r7, #4]
 80011ae:	2203      	movs	r2, #3
 80011b0:	771a      	strb	r2, [r3, #28]
				}
			}*/
		}
	}

}
 80011b2:	46c0      	nop			; (mov r8, r8)
 80011b4:	46bd      	mov	sp, r7
 80011b6:	b002      	add	sp, #8
 80011b8:	bd80      	pop	{r7, pc}

080011ba <I2C_RXNE_handler>:

static void I2C_RXNE_handler(I2C_Handle_t *pI2Chandle){
 80011ba:	b580      	push	{r7, lr}
 80011bc:	b082      	sub	sp, #8
 80011be:	af00      	add	r7, sp, #0
 80011c0:	6078      	str	r0, [r7, #4]
	/*RXNE is set by hardware when received data is copied into I2C_RXDR register, and
	*is ready to be read. It is cleared when I2C_RXDR is read*/
	if (pI2Chandle->I2C_Comm_t.RX_length >=1){
 80011c2:	687b      	ldr	r3, [r7, #4]
 80011c4:	695b      	ldr	r3, [r3, #20]
 80011c6:	2b00      	cmp	r3, #0
 80011c8:	d017      	beq.n	80011fa <I2C_RXNE_handler+0x40>
		*(pI2Chandle->I2C_Comm_t.RX_buffer) = pI2Chandle->pI2C->I2C_RXDR;
 80011ca:	687b      	ldr	r3, [r7, #4]
 80011cc:	681b      	ldr	r3, [r3, #0]
 80011ce:	6a5a      	ldr	r2, [r3, #36]	; 0x24
 80011d0:	687b      	ldr	r3, [r7, #4]
 80011d2:	699b      	ldr	r3, [r3, #24]
 80011d4:	b2d2      	uxtb	r2, r2
 80011d6:	701a      	strb	r2, [r3, #0]
		pI2Chandle->I2C_Comm_t.RX_buffer++;
 80011d8:	687b      	ldr	r3, [r7, #4]
 80011da:	699b      	ldr	r3, [r3, #24]
 80011dc:	1c5a      	adds	r2, r3, #1
 80011de:	687b      	ldr	r3, [r7, #4]
 80011e0:	619a      	str	r2, [r3, #24]
		pI2Chandle->I2C_Comm_t.RX_length--;
 80011e2:	687b      	ldr	r3, [r7, #4]
 80011e4:	695b      	ldr	r3, [r3, #20]
 80011e6:	1e5a      	subs	r2, r3, #1
 80011e8:	687b      	ldr	r3, [r7, #4]
 80011ea:	615a      	str	r2, [r3, #20]
		/*if last byte to be send,wait until STOP or TC/TCR,depending on AUTOEND(these interrupts are handled)
		*state=WAITING_END (STOP or TC/TCR flag)
		*if NBYTES>255, I2C_RELOAD*/
		if (pI2Chandle->I2C_Comm_t.RX_length == 0){
 80011ec:	687b      	ldr	r3, [r7, #4]
 80011ee:	695b      	ldr	r3, [r3, #20]
 80011f0:	2b00      	cmp	r3, #0
 80011f2:	d102      	bne.n	80011fa <I2C_RXNE_handler+0x40>
			pI2Chandle->I2C_Comm_t.communication_state = I2C_WAITING_END;
 80011f4:	687b      	ldr	r3, [r7, #4]
 80011f6:	2203      	movs	r2, #3
 80011f8:	771a      	strb	r2, [r3, #28]
			}*/
		}
	}

	//inform the main application of a new read value, through callback
	I2C_App_Callback(pI2Chandle, I2C_NEW_READING);
 80011fa:	687b      	ldr	r3, [r7, #4]
 80011fc:	2104      	movs	r1, #4
 80011fe:	0018      	movs	r0, r3
 8001200:	f7ff f8a2 	bl	8000348 <I2C_App_Callback>
}
 8001204:	46c0      	nop			; (mov r8, r8)
 8001206:	46bd      	mov	sp, r7
 8001208:	b002      	add	sp, #8
 800120a:	bd80      	pop	{r7, pc}

0800120c <I2C_BERR_handler>:

static void I2C_BERR_handler(I2C_Handle_t *pI2Chandle){
 800120c:	b580      	push	{r7, lr}
 800120e:	b082      	sub	sp, #8
 8001210:	af00      	add	r7, sp, #0
 8001212:	6078      	str	r0, [r7, #4]
	/*BERR is set by hardware when a misplaced Start or STOP is detected whereas
	*the peripheral is involved in the transfer. The flag is not set during address phase in slave
	*mode. It is cleared by software by setting BERRCF bit*/
	pI2Chandle->pI2C->I2C_ICR |= (1<<I2C_ICR_BERRCF);
 8001214:	687b      	ldr	r3, [r7, #4]
 8001216:	681b      	ldr	r3, [r3, #0]
 8001218:	69da      	ldr	r2, [r3, #28]
 800121a:	687b      	ldr	r3, [r7, #4]
 800121c:	681b      	ldr	r3, [r3, #0]
 800121e:	2180      	movs	r1, #128	; 0x80
 8001220:	0049      	lsls	r1, r1, #1
 8001222:	430a      	orrs	r2, r1
 8001224:	61da      	str	r2, [r3, #28]
	//Disable I2C
	I2C_EnableDisable(pI2Chandle,DISABLE);
 8001226:	687b      	ldr	r3, [r7, #4]
 8001228:	2100      	movs	r1, #0
 800122a:	0018      	movs	r0, r3
 800122c:	f7ff fd9c 	bl	8000d68 <I2C_EnableDisable>
	//inform the main application through callback
	I2C_App_Callback(pI2Chandle, I2C_BERR_ERROR);
 8001230:	687b      	ldr	r3, [r7, #4]
 8001232:	2103      	movs	r1, #3
 8001234:	0018      	movs	r0, r3
 8001236:	f7ff f887 	bl	8000348 <I2C_App_Callback>
}
 800123a:	46c0      	nop			; (mov r8, r8)
 800123c:	46bd      	mov	sp, r7
 800123e:	b002      	add	sp, #8
 8001240:	bd80      	pop	{r7, pc}

08001242 <I2C_STOP_handler>:

/*The STOP interruption happens too fast for the code,so I also handle STOP flag from TXIS.
*Anyway, just in case:*/
static void I2C_STOP_handler(I2C_Handle_t *pI2Chandle){
 8001242:	b580      	push	{r7, lr}
 8001244:	b082      	sub	sp, #8
 8001246:	af00      	add	r7, sp, #0
 8001248:	6078      	str	r0, [r7, #4]
	/*This flag is set by hardware when a STOP condition is detected on the bus and the
	*peripheral is involved in this transfer. It is cleared by software by setting the STOPCF bit.*/
	//if I2C_WAITING_END --> I2C_READY. Close transmission/reception,buffer pointing to NULL
	if (pI2Chandle->I2C_Comm_t.communication_state == I2C_WAITING_END){
 800124a:	687b      	ldr	r3, [r7, #4]
 800124c:	7f1b      	ldrb	r3, [r3, #28]
 800124e:	2b03      	cmp	r3, #3
 8001250:	d11a      	bne.n	8001288 <I2C_STOP_handler+0x46>
		pI2Chandle->I2C_Comm_t.communication_state = I2C_READY;
 8001252:	687b      	ldr	r3, [r7, #4]
 8001254:	2200      	movs	r2, #0
 8001256:	771a      	strb	r2, [r3, #28]
		pI2Chandle->I2C_Comm_t.RX_buffer = NULL; //null pointer
 8001258:	687b      	ldr	r3, [r7, #4]
 800125a:	2200      	movs	r2, #0
 800125c:	619a      	str	r2, [r3, #24]
		pI2Chandle->I2C_Comm_t.TX_buffer = NULL; //null pointer
 800125e:	687b      	ldr	r3, [r7, #4]
 8001260:	2200      	movs	r2, #0
 8001262:	611a      	str	r2, [r3, #16]
		pI2Chandle->pI2C->I2C_ICR |= (1<<I2C_ICR_STOPCF);
 8001264:	687b      	ldr	r3, [r7, #4]
 8001266:	681b      	ldr	r3, [r3, #0]
 8001268:	69da      	ldr	r2, [r3, #28]
 800126a:	687b      	ldr	r3, [r7, #4]
 800126c:	681b      	ldr	r3, [r3, #0]
 800126e:	2120      	movs	r1, #32
 8001270:	430a      	orrs	r2, r1
 8001272:	61da      	str	r2, [r3, #28]
		I2C_EnableDisable(pI2Chandle,DISABLE); //Disable I2C
 8001274:	687b      	ldr	r3, [r7, #4]
 8001276:	2100      	movs	r1, #0
 8001278:	0018      	movs	r0, r3
 800127a:	f7ff fd75 	bl	8000d68 <I2C_EnableDisable>
		I2C_App_Callback(pI2Chandle, I2C_FINISHED);
 800127e:	687b      	ldr	r3, [r7, #4]
 8001280:	2102      	movs	r1, #2
 8001282:	0018      	movs	r0, r3
 8001284:	f7ff f860 	bl	8000348 <I2C_App_Callback>
	}

}
 8001288:	46c0      	nop			; (mov r8, r8)
 800128a:	46bd      	mov	sp, r7
 800128c:	b002      	add	sp, #8
 800128e:	bd80      	pop	{r7, pc}

08001290 <I2C_TC_handler>:

static void I2C_TC_handler(I2C_Handle_t *pI2Chandle){
 8001290:	b580      	push	{r7, lr}
 8001292:	b082      	sub	sp, #8
 8001294:	af00      	add	r7, sp, #0
 8001296:	6078      	str	r0, [r7, #4]
	/*TC(transfer complete) is set by hardware when RELOAD=0, AUTOEND=0 and NBYTES data have been
	*transferred. It is cleared by software when START bit or STOP bit is set.*/
	//if I2C_WAITING_END --> I2C_RESTART_STOP
	if (pI2Chandle->I2C_Comm_t.communication_state == I2C_WAITING_END){
 8001298:	687b      	ldr	r3, [r7, #4]
 800129a:	7f1b      	ldrb	r3, [r3, #28]
 800129c:	2b03      	cmp	r3, #3
 800129e:	d107      	bne.n	80012b0 <I2C_TC_handler+0x20>
		pI2Chandle->I2C_Comm_t.communication_state = I2C_RESTART_STOP;
 80012a0:	687b      	ldr	r3, [r7, #4]
 80012a2:	2204      	movs	r2, #4
 80012a4:	771a      	strb	r2, [r3, #28]
		I2C_App_Callback(pI2Chandle, I2C_TC);
 80012a6:	687b      	ldr	r3, [r7, #4]
 80012a8:	2105      	movs	r1, #5
 80012aa:	0018      	movs	r0, r3
 80012ac:	f7ff f84c 	bl	8000348 <I2C_App_Callback>
	}
}
 80012b0:	46c0      	nop			; (mov r8, r8)
 80012b2:	46bd      	mov	sp, r7
 80012b4:	b002      	add	sp, #8
 80012b6:	bd80      	pop	{r7, pc}

080012b8 <I2C_TCR_handler>:

static void I2C_TCR_handler(I2C_Handle_t *pI2Chandle){ //when NBYTES>255
 80012b8:	b580      	push	{r7, lr}
 80012ba:	b082      	sub	sp, #8
 80012bc:	af00      	add	r7, sp, #0
 80012be:	6078      	str	r0, [r7, #4]
	/*TCR(transfer complete reload) is set by hardware when RELOAD=1 and NBYTES data have been transferred. It is
	*cleared by software when NBYTES is written to a non-zero value.*/
	//if I2C_WAITING_END --> I2C_RELOAD
	if (pI2Chandle->I2C_Comm_t.communication_state == I2C_WAITING_END){
 80012c0:	687b      	ldr	r3, [r7, #4]
 80012c2:	7f1b      	ldrb	r3, [r3, #28]
 80012c4:	2b03      	cmp	r3, #3
 80012c6:	d107      	bne.n	80012d8 <I2C_TCR_handler+0x20>
		pI2Chandle->I2C_Comm_t.communication_state = I2C_RELOAD;
 80012c8:	687b      	ldr	r3, [r7, #4]
 80012ca:	2205      	movs	r2, #5
 80012cc:	771a      	strb	r2, [r3, #28]
		I2C_App_Callback(pI2Chandle, I2C_TCR);
 80012ce:	687b      	ldr	r3, [r7, #4]
 80012d0:	2106      	movs	r1, #6
 80012d2:	0018      	movs	r0, r3
 80012d4:	f7ff f838 	bl	8000348 <I2C_App_Callback>
	}
}
 80012d8:	46c0      	nop			; (mov r8, r8)
 80012da:	46bd      	mov	sp, r7
 80012dc:	b002      	add	sp, #8
 80012de:	bd80      	pop	{r7, pc}

080012e0 <I2C_Master_TimingR>:
__attribute__((weak)) void I2C_App_Callback(I2C_Handle_t *pI2Chandle,uint8_t Event){
	//This function will be implemented in every particular application. Thus, the weak attribute
}

/*TIMINGR calculation*/
void I2C_Master_TimingR(I2C_Handle_t *pI2Chandle, uint8_t presc, uint8_t scldel, uint8_t sdadel, uint8_t sclh, uint8_t scll){
 80012e0:	b590      	push	{r4, r7, lr}
 80012e2:	b083      	sub	sp, #12
 80012e4:	af00      	add	r7, sp, #0
 80012e6:	6078      	str	r0, [r7, #4]
 80012e8:	000c      	movs	r4, r1
 80012ea:	0010      	movs	r0, r2
 80012ec:	0019      	movs	r1, r3
 80012ee:	1cfb      	adds	r3, r7, #3
 80012f0:	1c22      	adds	r2, r4, #0
 80012f2:	701a      	strb	r2, [r3, #0]
 80012f4:	1cbb      	adds	r3, r7, #2
 80012f6:	1c02      	adds	r2, r0, #0
 80012f8:	701a      	strb	r2, [r3, #0]
 80012fa:	1c7b      	adds	r3, r7, #1
 80012fc:	1c0a      	adds	r2, r1, #0
 80012fe:	701a      	strb	r2, [r3, #0]
	pI2Chandle->I2C_Config.I2C_Timing |= ((presc & 0x0F) << 28);
 8001300:	687b      	ldr	r3, [r7, #4]
 8001302:	689b      	ldr	r3, [r3, #8]
 8001304:	1cfa      	adds	r2, r7, #3
 8001306:	7812      	ldrb	r2, [r2, #0]
 8001308:	0712      	lsls	r2, r2, #28
 800130a:	431a      	orrs	r2, r3
 800130c:	687b      	ldr	r3, [r7, #4]
 800130e:	609a      	str	r2, [r3, #8]
	pI2Chandle->I2C_Config.I2C_Timing |= ((scldel & 0x0F) << 20);
 8001310:	687b      	ldr	r3, [r7, #4]
 8001312:	689a      	ldr	r2, [r3, #8]
 8001314:	1cbb      	adds	r3, r7, #2
 8001316:	781b      	ldrb	r3, [r3, #0]
 8001318:	051b      	lsls	r3, r3, #20
 800131a:	0019      	movs	r1, r3
 800131c:	23f0      	movs	r3, #240	; 0xf0
 800131e:	041b      	lsls	r3, r3, #16
 8001320:	400b      	ands	r3, r1
 8001322:	431a      	orrs	r2, r3
 8001324:	687b      	ldr	r3, [r7, #4]
 8001326:	609a      	str	r2, [r3, #8]
	pI2Chandle->I2C_Config.I2C_Timing |= ((sdadel & 0x0F) << 16);
 8001328:	687b      	ldr	r3, [r7, #4]
 800132a:	689a      	ldr	r2, [r3, #8]
 800132c:	1c7b      	adds	r3, r7, #1
 800132e:	781b      	ldrb	r3, [r3, #0]
 8001330:	041b      	lsls	r3, r3, #16
 8001332:	0019      	movs	r1, r3
 8001334:	23f0      	movs	r3, #240	; 0xf0
 8001336:	031b      	lsls	r3, r3, #12
 8001338:	400b      	ands	r3, r1
 800133a:	431a      	orrs	r2, r3
 800133c:	687b      	ldr	r3, [r7, #4]
 800133e:	609a      	str	r2, [r3, #8]
	pI2Chandle->I2C_Config.I2C_Timing |= (sclh << 8);
 8001340:	687b      	ldr	r3, [r7, #4]
 8001342:	689a      	ldr	r2, [r3, #8]
 8001344:	2318      	movs	r3, #24
 8001346:	18fb      	adds	r3, r7, r3
 8001348:	781b      	ldrb	r3, [r3, #0]
 800134a:	021b      	lsls	r3, r3, #8
 800134c:	431a      	orrs	r2, r3
 800134e:	687b      	ldr	r3, [r7, #4]
 8001350:	609a      	str	r2, [r3, #8]
	pI2Chandle->I2C_Config.I2C_Timing |= scll;
 8001352:	687b      	ldr	r3, [r7, #4]
 8001354:	689a      	ldr	r2, [r3, #8]
 8001356:	231c      	movs	r3, #28
 8001358:	18fb      	adds	r3, r7, r3
 800135a:	781b      	ldrb	r3, [r3, #0]
 800135c:	431a      	orrs	r2, r3
 800135e:	687b      	ldr	r3, [r7, #4]
 8001360:	609a      	str	r2, [r3, #8]
}
 8001362:	46c0      	nop			; (mov r8, r8)
 8001364:	46bd      	mov	sp, r7
 8001366:	b003      	add	sp, #12
 8001368:	bd90      	pop	{r4, r7, pc}
	...

0800136c <SPI_ClockControl>:
static void SPI_TXE_handler(SPI_Handle_t *pSPIhandle);
static void SPI_RXNE_handler(SPI_Handle_t *pSPIhandle);
static void SPI_OVR_handler(SPI_Handle_t *pSPIhandle);

/*Enable or disable SPI peripheral clock*/
void SPI_ClockControl(SPI_Handle_t *pSPIhandle, uint8_t EnableDisable){
 800136c:	b580      	push	{r7, lr}
 800136e:	b082      	sub	sp, #8
 8001370:	af00      	add	r7, sp, #0
 8001372:	6078      	str	r0, [r7, #4]
 8001374:	000a      	movs	r2, r1
 8001376:	1cfb      	adds	r3, r7, #3
 8001378:	701a      	strb	r2, [r3, #0]
	if (EnableDisable == ENABLE) {
 800137a:	1cfb      	adds	r3, r7, #3
 800137c:	781b      	ldrb	r3, [r3, #0]
 800137e:	2b01      	cmp	r3, #1
 8001380:	d119      	bne.n	80013b6 <SPI_ClockControl+0x4a>
		if (pSPIhandle->pSPI == SPI1_I2S1){
 8001382:	687b      	ldr	r3, [r7, #4]
 8001384:	681b      	ldr	r3, [r3, #0]
 8001386:	4a19      	ldr	r2, [pc, #100]	; (80013ec <SPI_ClockControl+0x80>)
 8001388:	4293      	cmp	r3, r2
 800138a:	d107      	bne.n	800139c <SPI_ClockControl+0x30>
			SPI1_I2S1_EnableClock();
 800138c:	4b18      	ldr	r3, [pc, #96]	; (80013f0 <SPI_ClockControl+0x84>)
 800138e:	699a      	ldr	r2, [r3, #24]
 8001390:	4b17      	ldr	r3, [pc, #92]	; (80013f0 <SPI_ClockControl+0x84>)
 8001392:	2180      	movs	r1, #128	; 0x80
 8001394:	0149      	lsls	r1, r1, #5
 8001396:	430a      	orrs	r2, r1
 8001398:	619a      	str	r2, [r3, #24]
		}
		else if (pSPIhandle->pSPI == SPI2){
			SPI2_DisableClock();
		}
	}
}
 800139a:	e023      	b.n	80013e4 <SPI_ClockControl+0x78>
		else if (pSPIhandle->pSPI == SPI2){
 800139c:	687b      	ldr	r3, [r7, #4]
 800139e:	681b      	ldr	r3, [r3, #0]
 80013a0:	4a14      	ldr	r2, [pc, #80]	; (80013f4 <SPI_ClockControl+0x88>)
 80013a2:	4293      	cmp	r3, r2
 80013a4:	d11e      	bne.n	80013e4 <SPI_ClockControl+0x78>
			SPI2_EnableClock();
 80013a6:	4b12      	ldr	r3, [pc, #72]	; (80013f0 <SPI_ClockControl+0x84>)
 80013a8:	69da      	ldr	r2, [r3, #28]
 80013aa:	4b11      	ldr	r3, [pc, #68]	; (80013f0 <SPI_ClockControl+0x84>)
 80013ac:	2180      	movs	r1, #128	; 0x80
 80013ae:	01c9      	lsls	r1, r1, #7
 80013b0:	430a      	orrs	r2, r1
 80013b2:	61da      	str	r2, [r3, #28]
}
 80013b4:	e016      	b.n	80013e4 <SPI_ClockControl+0x78>
		if (pSPIhandle->pSPI == SPI1_I2S1){
 80013b6:	687b      	ldr	r3, [r7, #4]
 80013b8:	681b      	ldr	r3, [r3, #0]
 80013ba:	4a0c      	ldr	r2, [pc, #48]	; (80013ec <SPI_ClockControl+0x80>)
 80013bc:	4293      	cmp	r3, r2
 80013be:	d106      	bne.n	80013ce <SPI_ClockControl+0x62>
			SPI1_I2S1_DisableClock();
 80013c0:	4b0b      	ldr	r3, [pc, #44]	; (80013f0 <SPI_ClockControl+0x84>)
 80013c2:	699a      	ldr	r2, [r3, #24]
 80013c4:	4b0a      	ldr	r3, [pc, #40]	; (80013f0 <SPI_ClockControl+0x84>)
 80013c6:	490c      	ldr	r1, [pc, #48]	; (80013f8 <SPI_ClockControl+0x8c>)
 80013c8:	400a      	ands	r2, r1
 80013ca:	619a      	str	r2, [r3, #24]
}
 80013cc:	e00a      	b.n	80013e4 <SPI_ClockControl+0x78>
		else if (pSPIhandle->pSPI == SPI2){
 80013ce:	687b      	ldr	r3, [r7, #4]
 80013d0:	681b      	ldr	r3, [r3, #0]
 80013d2:	4a08      	ldr	r2, [pc, #32]	; (80013f4 <SPI_ClockControl+0x88>)
 80013d4:	4293      	cmp	r3, r2
 80013d6:	d105      	bne.n	80013e4 <SPI_ClockControl+0x78>
			SPI2_DisableClock();
 80013d8:	4b05      	ldr	r3, [pc, #20]	; (80013f0 <SPI_ClockControl+0x84>)
 80013da:	69da      	ldr	r2, [r3, #28]
 80013dc:	4b04      	ldr	r3, [pc, #16]	; (80013f0 <SPI_ClockControl+0x84>)
 80013de:	4907      	ldr	r1, [pc, #28]	; (80013fc <SPI_ClockControl+0x90>)
 80013e0:	400a      	ands	r2, r1
 80013e2:	61da      	str	r2, [r3, #28]
}
 80013e4:	46c0      	nop			; (mov r8, r8)
 80013e6:	46bd      	mov	sp, r7
 80013e8:	b002      	add	sp, #8
 80013ea:	bd80      	pop	{r7, pc}
 80013ec:	40013000 	.word	0x40013000
 80013f0:	40021000 	.word	0x40021000
 80013f4:	40003800 	.word	0x40003800
 80013f8:	ffffefff 	.word	0xffffefff
 80013fc:	ffffbfff 	.word	0xffffbfff

08001400 <SPI_Init>:

/*SPI initialization, which does not mean to enable SPI (which is done through SPI_EnableDisable) */
void SPI_Init(SPI_Handle_t *pSPIhandle){
 8001400:	b580      	push	{r7, lr}
 8001402:	b082      	sub	sp, #8
 8001404:	af00      	add	r7, sp, #0
 8001406:	6078      	str	r0, [r7, #4]

	SPI_ClockControl(pSPIhandle,ENABLE); //enable SPI peripheral clock
 8001408:	687b      	ldr	r3, [r7, #4]
 800140a:	2101      	movs	r1, #1
 800140c:	0018      	movs	r0, r3
 800140e:	f7ff ffad 	bl	800136c <SPI_ClockControl>
	/*Configure CR1*/
	//first,CR1 can be reset completely as it is not related to other parts (it might be reset with memset in the app,too)
	pSPIhandle->pSPI->SPI_CR1 = 0;
 8001412:	687b      	ldr	r3, [r7, #4]
 8001414:	681b      	ldr	r3, [r3, #0]
 8001416:	2200      	movs	r2, #0
 8001418:	601a      	str	r2, [r3, #0]

	//master/slave
	pSPIhandle->pSPI->SPI_CR1 |= ((pSPIhandle->SPI_Config.SPI_Mode)<<SPI_CR1_MSTR); //bit MSTR set
 800141a:	687b      	ldr	r3, [r7, #4]
 800141c:	681b      	ldr	r3, [r3, #0]
 800141e:	681a      	ldr	r2, [r3, #0]
 8001420:	687b      	ldr	r3, [r7, #4]
 8001422:	791b      	ldrb	r3, [r3, #4]
 8001424:	009b      	lsls	r3, r3, #2
 8001426:	0019      	movs	r1, r3
 8001428:	687b      	ldr	r3, [r7, #4]
 800142a:	681b      	ldr	r3, [r3, #0]
 800142c:	430a      	orrs	r2, r1
 800142e:	601a      	str	r2, [r3, #0]

	//mode: full duplex/half duplex/simplex.Bits:BIDIMODE (full/half)+BIDIOE (output enabled)+RXONLY(1 if BIDIOE disabled)
	if (pSPIhandle->SPI_Config.SPI_Mode == SPI_FULLDUPLEX){
 8001430:	687b      	ldr	r3, [r7, #4]
 8001432:	791b      	ldrb	r3, [r3, #4]
 8001434:	2b01      	cmp	r3, #1
 8001436:	d108      	bne.n	800144a <SPI_Init+0x4a>
		pSPIhandle->pSPI->SPI_CR1 &= ~(1<<SPI_CR1_BIDIMODE); //not necessary to set 0 because SPI_CR1 had been initialized to 0,but makes code clearer
 8001438:	687b      	ldr	r3, [r7, #4]
 800143a:	681b      	ldr	r3, [r3, #0]
 800143c:	681a      	ldr	r2, [r3, #0]
 800143e:	687b      	ldr	r3, [r7, #4]
 8001440:	681b      	ldr	r3, [r3, #0]
 8001442:	493f      	ldr	r1, [pc, #252]	; (8001540 <SPI_Init+0x140>)
 8001444:	400a      	ands	r2, r1
 8001446:	601a      	str	r2, [r3, #0]
 8001448:	e02a      	b.n	80014a0 <SPI_Init+0xa0>
	}
	else if (pSPIhandle->SPI_Config.SPI_Mode == SPI_HALFDUPLEX){
 800144a:	687b      	ldr	r3, [r7, #4]
 800144c:	791b      	ldrb	r3, [r3, #4]
 800144e:	2b02      	cmp	r3, #2
 8001450:	d109      	bne.n	8001466 <SPI_Init+0x66>
		pSPIhandle->pSPI->SPI_CR1 |= (1<<SPI_CR1_BIDIMODE);
 8001452:	687b      	ldr	r3, [r7, #4]
 8001454:	681b      	ldr	r3, [r3, #0]
 8001456:	681a      	ldr	r2, [r3, #0]
 8001458:	687b      	ldr	r3, [r7, #4]
 800145a:	681b      	ldr	r3, [r3, #0]
 800145c:	2180      	movs	r1, #128	; 0x80
 800145e:	0209      	lsls	r1, r1, #8
 8001460:	430a      	orrs	r2, r1
 8001462:	601a      	str	r2, [r3, #0]
 8001464:	e01c      	b.n	80014a0 <SPI_Init+0xa0>
	}
	else if (pSPIhandle->SPI_Config.SPI_Mode == SPI_CR1_RXONLY){
 8001466:	687b      	ldr	r3, [r7, #4]
 8001468:	791b      	ldrb	r3, [r3, #4]
 800146a:	2b0a      	cmp	r3, #10
 800146c:	d118      	bne.n	80014a0 <SPI_Init+0xa0>
		//acc to datasheet, Keep BIDIMODE bit clear when receive only mode is active.
		pSPIhandle->pSPI->SPI_CR1 &= ~(1<<SPI_CR1_BIDIMODE);
 800146e:	687b      	ldr	r3, [r7, #4]
 8001470:	681b      	ldr	r3, [r3, #0]
 8001472:	681a      	ldr	r2, [r3, #0]
 8001474:	687b      	ldr	r3, [r7, #4]
 8001476:	681b      	ldr	r3, [r3, #0]
 8001478:	4931      	ldr	r1, [pc, #196]	; (8001540 <SPI_Init+0x140>)
 800147a:	400a      	ands	r2, r1
 800147c:	601a      	str	r2, [r3, #0]
		pSPIhandle->pSPI->SPI_CR1 &= ~(1<<SPI_CR1_BIDIOE);
 800147e:	687b      	ldr	r3, [r7, #4]
 8001480:	681b      	ldr	r3, [r3, #0]
 8001482:	681a      	ldr	r2, [r3, #0]
 8001484:	687b      	ldr	r3, [r7, #4]
 8001486:	681b      	ldr	r3, [r3, #0]
 8001488:	492e      	ldr	r1, [pc, #184]	; (8001544 <SPI_Init+0x144>)
 800148a:	400a      	ands	r2, r1
 800148c:	601a      	str	r2, [r3, #0]
		pSPIhandle->pSPI->SPI_CR1 |= (1<<SPI_CR1_RXONLY);
 800148e:	687b      	ldr	r3, [r7, #4]
 8001490:	681b      	ldr	r3, [r3, #0]
 8001492:	681a      	ldr	r2, [r3, #0]
 8001494:	687b      	ldr	r3, [r7, #4]
 8001496:	681b      	ldr	r3, [r3, #0]
 8001498:	2180      	movs	r1, #128	; 0x80
 800149a:	00c9      	lsls	r1, r1, #3
 800149c:	430a      	orrs	r2, r1
 800149e:	601a      	str	r2, [r3, #0]
	}
	//simplex TX is actually full duplex

	//Phase
	pSPIhandle->pSPI->SPI_CR1 |= (pSPIhandle->SPI_Config.SPI_Phase<<SPI_CR1_CPHA);
 80014a0:	687b      	ldr	r3, [r7, #4]
 80014a2:	681b      	ldr	r3, [r3, #0]
 80014a4:	681a      	ldr	r2, [r3, #0]
 80014a6:	687b      	ldr	r3, [r7, #4]
 80014a8:	7a9b      	ldrb	r3, [r3, #10]
 80014aa:	0019      	movs	r1, r3
 80014ac:	687b      	ldr	r3, [r7, #4]
 80014ae:	681b      	ldr	r3, [r3, #0]
 80014b0:	430a      	orrs	r2, r1
 80014b2:	601a      	str	r2, [r3, #0]

	//Polarity
	pSPIhandle->pSPI->SPI_CR1 |= (pSPIhandle->SPI_Config.SPI_Pol<<SPI_CR1_CPOL);
 80014b4:	687b      	ldr	r3, [r7, #4]
 80014b6:	681b      	ldr	r3, [r3, #0]
 80014b8:	681a      	ldr	r2, [r3, #0]
 80014ba:	687b      	ldr	r3, [r7, #4]
 80014bc:	7a5b      	ldrb	r3, [r3, #9]
 80014be:	005b      	lsls	r3, r3, #1
 80014c0:	0019      	movs	r1, r3
 80014c2:	687b      	ldr	r3, [r7, #4]
 80014c4:	681b      	ldr	r3, [r3, #0]
 80014c6:	430a      	orrs	r2, r1
 80014c8:	601a      	str	r2, [r3, #0]

	//software slave management
	pSPIhandle->pSPI->SPI_CR1 |= (pSPIhandle->SPI_Config.SPI_SWslave<<SPI_CR1_SSM);
 80014ca:	687b      	ldr	r3, [r7, #4]
 80014cc:	681b      	ldr	r3, [r3, #0]
 80014ce:	681a      	ldr	r2, [r3, #0]
 80014d0:	687b      	ldr	r3, [r7, #4]
 80014d2:	7a1b      	ldrb	r3, [r3, #8]
 80014d4:	025b      	lsls	r3, r3, #9
 80014d6:	0019      	movs	r1, r3
 80014d8:	687b      	ldr	r3, [r7, #4]
 80014da:	681b      	ldr	r3, [r3, #0]
 80014dc:	430a      	orrs	r2, r1
 80014de:	601a      	str	r2, [r3, #0]

	//Speed (baudrate)
	pSPIhandle->pSPI->SPI_CR1 |= (pSPIhandle->SPI_Config.SPI_Speed<<SPI_CR1_BR);
 80014e0:	687b      	ldr	r3, [r7, #4]
 80014e2:	681b      	ldr	r3, [r3, #0]
 80014e4:	681a      	ldr	r2, [r3, #0]
 80014e6:	687b      	ldr	r3, [r7, #4]
 80014e8:	795b      	ldrb	r3, [r3, #5]
 80014ea:	00db      	lsls	r3, r3, #3
 80014ec:	0019      	movs	r1, r3
 80014ee:	687b      	ldr	r3, [r7, #4]
 80014f0:	681b      	ldr	r3, [r3, #0]
 80014f2:	430a      	orrs	r2, r1
 80014f4:	601a      	str	r2, [r3, #0]

	/*CR2. Not reset the whole CR2 to 0 as its bits can be modified from other parts of the code (enable interrupts)*/
	//Size --> this is in CR2!! First reset the data size (bits8-11) and then set it
	pSPIhandle->pSPI->SPI_CR2 &= (~(15<<SPI_CR2_DS)); //I had put pSPIhandle->pSPI->SPI_CR2 &= (~(7<<SPI_CR2_DS)). Why 7?
 80014f6:	687b      	ldr	r3, [r7, #4]
 80014f8:	681b      	ldr	r3, [r3, #0]
 80014fa:	685a      	ldr	r2, [r3, #4]
 80014fc:	687b      	ldr	r3, [r7, #4]
 80014fe:	681b      	ldr	r3, [r3, #0]
 8001500:	4911      	ldr	r1, [pc, #68]	; (8001548 <SPI_Init+0x148>)
 8001502:	400a      	ands	r2, r1
 8001504:	605a      	str	r2, [r3, #4]
	pSPIhandle->pSPI->SPI_CR2 |= (pSPIhandle->SPI_Config.SPI_DataSize <<SPI_CR2_DS);
 8001506:	687b      	ldr	r3, [r7, #4]
 8001508:	681b      	ldr	r3, [r3, #0]
 800150a:	685a      	ldr	r2, [r3, #4]
 800150c:	687b      	ldr	r3, [r7, #4]
 800150e:	79db      	ldrb	r3, [r3, #7]
 8001510:	021b      	lsls	r3, r3, #8
 8001512:	0019      	movs	r1, r3
 8001514:	687b      	ldr	r3, [r7, #4]
 8001516:	681b      	ldr	r3, [r3, #0]
 8001518:	430a      	orrs	r2, r1
 800151a:	605a      	str	r2, [r3, #4]

	//to avoid data packing, set FIFO threshold reception to 1/4 (8-bit). Read data packing section
	if (pSPIhandle->SPI_Config.SPI_DataSize == SPI_8BIT){
 800151c:	687b      	ldr	r3, [r7, #4]
 800151e:	79db      	ldrb	r3, [r3, #7]
 8001520:	2b07      	cmp	r3, #7
 8001522:	d108      	bne.n	8001536 <SPI_Init+0x136>
		pSPIhandle->pSPI->SPI_CR2 |= (1<<SPI_CR2_FRXTH);
 8001524:	687b      	ldr	r3, [r7, #4]
 8001526:	681b      	ldr	r3, [r3, #0]
 8001528:	685a      	ldr	r2, [r3, #4]
 800152a:	687b      	ldr	r3, [r7, #4]
 800152c:	681b      	ldr	r3, [r3, #0]
 800152e:	2180      	movs	r1, #128	; 0x80
 8001530:	0149      	lsls	r1, r1, #5
 8001532:	430a      	orrs	r2, r1
 8001534:	605a      	str	r2, [r3, #4]
	}
}
 8001536:	46c0      	nop			; (mov r8, r8)
 8001538:	46bd      	mov	sp, r7
 800153a:	b002      	add	sp, #8
 800153c:	bd80      	pop	{r7, pc}
 800153e:	46c0      	nop			; (mov r8, r8)
 8001540:	ffff7fff 	.word	0xffff7fff
 8001544:	ffffbfff 	.word	0xffffbfff
 8001548:	fffff0ff 	.word	0xfffff0ff

0800154c <SPI_EnableDisable>:

/*SPI control: enable/disable --> bit 6 CR1 */
void SPI_EnableDisable(SPI_Handle_t *pSPIhandle, uint8_t EnableDisable){
 800154c:	b580      	push	{r7, lr}
 800154e:	b082      	sub	sp, #8
 8001550:	af00      	add	r7, sp, #0
 8001552:	6078      	str	r0, [r7, #4]
 8001554:	000a      	movs	r2, r1
 8001556:	1cfb      	adds	r3, r7, #3
 8001558:	701a      	strb	r2, [r3, #0]
	//instead of reset and set bit 6, I prefer to directly set the value
	if (EnableDisable == ENABLE){
 800155a:	1cfb      	adds	r3, r7, #3
 800155c:	781b      	ldrb	r3, [r3, #0]
 800155e:	2b01      	cmp	r3, #1
 8001560:	d108      	bne.n	8001574 <SPI_EnableDisable+0x28>
		pSPIhandle->pSPI->SPI_CR1 |= (1<<SPI_CR1_SPE);
 8001562:	687b      	ldr	r3, [r7, #4]
 8001564:	681b      	ldr	r3, [r3, #0]
 8001566:	681a      	ldr	r2, [r3, #0]
 8001568:	687b      	ldr	r3, [r7, #4]
 800156a:	681b      	ldr	r3, [r3, #0]
 800156c:	2140      	movs	r1, #64	; 0x40
 800156e:	430a      	orrs	r2, r1
 8001570:	601a      	str	r2, [r3, #0]
	}
	else { //0
		pSPIhandle->pSPI->SPI_CR1 &= (~(1<<SPI_CR1_SPE));
	}
}
 8001572:	e007      	b.n	8001584 <SPI_EnableDisable+0x38>
		pSPIhandle->pSPI->SPI_CR1 &= (~(1<<SPI_CR1_SPE));
 8001574:	687b      	ldr	r3, [r7, #4]
 8001576:	681b      	ldr	r3, [r3, #0]
 8001578:	681a      	ldr	r2, [r3, #0]
 800157a:	687b      	ldr	r3, [r7, #4]
 800157c:	681b      	ldr	r3, [r3, #0]
 800157e:	2140      	movs	r1, #64	; 0x40
 8001580:	438a      	bics	r2, r1
 8001582:	601a      	str	r2, [r3, #0]
}
 8001584:	46c0      	nop			; (mov r8, r8)
 8001586:	46bd      	mov	sp, r7
 8001588:	b002      	add	sp, #8
 800158a:	bd80      	pop	{r7, pc}

0800158c <SPI_SSOE>:
		pSPIhandle->pSPI->SPI_CR1 &= (~(1<<SPI_CR1_SSI));
	}
}

/*SSOE: SS output enable*/
void SPI_SSOE(SPI_Handle_t *pSPIhandle, uint8_t EnableDisable){
 800158c:	b580      	push	{r7, lr}
 800158e:	b082      	sub	sp, #8
 8001590:	af00      	add	r7, sp, #0
 8001592:	6078      	str	r0, [r7, #4]
 8001594:	000a      	movs	r2, r1
 8001596:	1cfb      	adds	r3, r7, #3
 8001598:	701a      	strb	r2, [r3, #0]
	if (EnableDisable == ENABLE){
 800159a:	1cfb      	adds	r3, r7, #3
 800159c:	781b      	ldrb	r3, [r3, #0]
 800159e:	2b01      	cmp	r3, #1
 80015a0:	d108      	bne.n	80015b4 <SPI_SSOE+0x28>
		pSPIhandle->pSPI->SPI_CR2 |= (1<<SPI_CR2_SSOE);
 80015a2:	687b      	ldr	r3, [r7, #4]
 80015a4:	681b      	ldr	r3, [r3, #0]
 80015a6:	685a      	ldr	r2, [r3, #4]
 80015a8:	687b      	ldr	r3, [r7, #4]
 80015aa:	681b      	ldr	r3, [r3, #0]
 80015ac:	2104      	movs	r1, #4
 80015ae:	430a      	orrs	r2, r1
 80015b0:	605a      	str	r2, [r3, #4]
	}
	else { //0
		pSPIhandle->pSPI->SPI_CR2 &= (~(1<<SPI_CR2_SSOE));
	}
}
 80015b2:	e007      	b.n	80015c4 <SPI_SSOE+0x38>
		pSPIhandle->pSPI->SPI_CR2 &= (~(1<<SPI_CR2_SSOE));
 80015b4:	687b      	ldr	r3, [r7, #4]
 80015b6:	681b      	ldr	r3, [r3, #0]
 80015b8:	685a      	ldr	r2, [r3, #4]
 80015ba:	687b      	ldr	r3, [r7, #4]
 80015bc:	681b      	ldr	r3, [r3, #0]
 80015be:	2104      	movs	r1, #4
 80015c0:	438a      	bics	r2, r1
 80015c2:	605a      	str	r2, [r3, #4]
}
 80015c4:	46c0      	nop			; (mov r8, r8)
 80015c6:	46bd      	mov	sp, r7
 80015c8:	b002      	add	sp, #8
 80015ca:	bd80      	pop	{r7, pc}

080015cc <SPI_IRQ_EnableDisable>:

}


/*IRQ Configuration and ISR handling*/
void SPI_IRQ_EnableDisable(uint8_t IRQ_Number, uint8_t EnableDisable){
 80015cc:	b580      	push	{r7, lr}
 80015ce:	b082      	sub	sp, #8
 80015d0:	af00      	add	r7, sp, #0
 80015d2:	0002      	movs	r2, r0
 80015d4:	1dfb      	adds	r3, r7, #7
 80015d6:	701a      	strb	r2, [r3, #0]
 80015d8:	1dbb      	adds	r3, r7, #6
 80015da:	1c0a      	adds	r2, r1, #0
 80015dc:	701a      	strb	r2, [r3, #0]
	if(EnableDisable == ENABLE){ //enable by means of ISER
 80015de:	1dbb      	adds	r3, r7, #6
 80015e0:	781b      	ldrb	r3, [r3, #0]
 80015e2:	2b01      	cmp	r3, #1
 80015e4:	d10b      	bne.n	80015fe <SPI_IRQ_EnableDisable+0x32>
		*NVIC_ISER |= ( 1 << IRQ_Number);
 80015e6:	4b0d      	ldr	r3, [pc, #52]	; (800161c <SPI_IRQ_EnableDisable+0x50>)
 80015e8:	681a      	ldr	r2, [r3, #0]
 80015ea:	1dfb      	adds	r3, r7, #7
 80015ec:	781b      	ldrb	r3, [r3, #0]
 80015ee:	2101      	movs	r1, #1
 80015f0:	4099      	lsls	r1, r3
 80015f2:	000b      	movs	r3, r1
 80015f4:	0019      	movs	r1, r3
 80015f6:	4b09      	ldr	r3, [pc, #36]	; (800161c <SPI_IRQ_EnableDisable+0x50>)
 80015f8:	430a      	orrs	r2, r1
 80015fa:	601a      	str	r2, [r3, #0]
	}
	else { //disable by means of ICER
		*NVIC_ICER |= ( 1 << IRQ_Number);
	}
}
 80015fc:	e00a      	b.n	8001614 <SPI_IRQ_EnableDisable+0x48>
		*NVIC_ICER |= ( 1 << IRQ_Number);
 80015fe:	4b08      	ldr	r3, [pc, #32]	; (8001620 <SPI_IRQ_EnableDisable+0x54>)
 8001600:	681a      	ldr	r2, [r3, #0]
 8001602:	1dfb      	adds	r3, r7, #7
 8001604:	781b      	ldrb	r3, [r3, #0]
 8001606:	2101      	movs	r1, #1
 8001608:	4099      	lsls	r1, r3
 800160a:	000b      	movs	r3, r1
 800160c:	0019      	movs	r1, r3
 800160e:	4b04      	ldr	r3, [pc, #16]	; (8001620 <SPI_IRQ_EnableDisable+0x54>)
 8001610:	430a      	orrs	r2, r1
 8001612:	601a      	str	r2, [r3, #0]
}
 8001614:	46c0      	nop			; (mov r8, r8)
 8001616:	46bd      	mov	sp, r7
 8001618:	b002      	add	sp, #8
 800161a:	bd80      	pop	{r7, pc}
 800161c:	e000e100 	.word	0xe000e100
 8001620:	e000e180 	.word	0xe000e180

08001624 <SPI_IRQ_Handling>:
	uint32_t tempIPR = ((*(NVIC_IPR_BASE + numberIPR))&~(0xFF<<blockIPR));
	tempIPR |= (IRQ_Priority<<(8*blockIPR+6)); //6 is because bits 0-5 are not editable, only bits 6-7 count.
	*(NVIC_IPR_BASE + numberIPR) = tempIPR;
}

void SPI_IRQ_Handling(SPI_Handle_t *pSPIhandle){
 8001624:	b580      	push	{r7, lr}
 8001626:	b082      	sub	sp, #8
 8001628:	af00      	add	r7, sp, #0
 800162a:	6078      	str	r0, [r7, #4]
	//to handle the possible interrupts related to SPI:TXE,RXNE,MODF,OVR,FRE,CRCERR
	//Call the handler related to the interrupt if register is true as long as it is enabled
	//TXE TX empty (enable control:TXEIE).if set, TX buffer empty so it can be loaded.
	if ( (pSPIhandle->pSPI->SPI_CR2 & (1<<SPI_CR2_TXEIE)) && (pSPIhandle->pSPI->SPI_SR & (1<<SPI_SR_TXE)) ){ //could use SPI_GetFlagStatus
 800162c:	687b      	ldr	r3, [r7, #4]
 800162e:	681b      	ldr	r3, [r3, #0]
 8001630:	685b      	ldr	r3, [r3, #4]
 8001632:	2280      	movs	r2, #128	; 0x80
 8001634:	4013      	ands	r3, r2
 8001636:	d009      	beq.n	800164c <SPI_IRQ_Handling+0x28>
 8001638:	687b      	ldr	r3, [r7, #4]
 800163a:	681b      	ldr	r3, [r3, #0]
 800163c:	689b      	ldr	r3, [r3, #8]
 800163e:	2202      	movs	r2, #2
 8001640:	4013      	ands	r3, r2
 8001642:	d003      	beq.n	800164c <SPI_IRQ_Handling+0x28>
		SPI_TXE_handler(pSPIhandle);
 8001644:	687b      	ldr	r3, [r7, #4]
 8001646:	0018      	movs	r0, r3
 8001648:	f000 f824 	bl	8001694 <SPI_TXE_handler>
	}

	//RXNE RX not empty (enable control:RXNEIE). if set, RX not empty so it has data to be read.
	if ( (pSPIhandle->pSPI->SPI_CR2 & (1<<SPI_CR2_RXNEIE)) && (pSPIhandle->pSPI->SPI_SR & (1<<SPI_SR_RXNE)) ){ //could use SPI_GetFlagStatus
 800164c:	687b      	ldr	r3, [r7, #4]
 800164e:	681b      	ldr	r3, [r3, #0]
 8001650:	685b      	ldr	r3, [r3, #4]
 8001652:	2240      	movs	r2, #64	; 0x40
 8001654:	4013      	ands	r3, r2
 8001656:	d009      	beq.n	800166c <SPI_IRQ_Handling+0x48>
 8001658:	687b      	ldr	r3, [r7, #4]
 800165a:	681b      	ldr	r3, [r3, #0]
 800165c:	689b      	ldr	r3, [r3, #8]
 800165e:	2201      	movs	r2, #1
 8001660:	4013      	ands	r3, r2
 8001662:	d003      	beq.n	800166c <SPI_IRQ_Handling+0x48>
		SPI_RXNE_handler(pSPIhandle);
 8001664:	687b      	ldr	r3, [r7, #4]
 8001666:	0018      	movs	r0, r3
 8001668:	f000 f85d 	bl	8001726 <SPI_RXNE_handler>
	MODF bit is set when the SS pin goes high during transmission.*/
	//To be implemented if someday I use multimaster

	/*OVR. Overrun. (enable control:ERRIE)occurs when data is received by a master or slave and the RXFIFO has not enough space to store
	 this received data.*/
	if ( (pSPIhandle->pSPI->SPI_CR2 & (1<<SPI_CR2_ERRIE)) && (pSPIhandle->pSPI->SPI_SR & (1<<SPI_SR_OVR)) ){ //could use SPI_GetFlagStatus
 800166c:	687b      	ldr	r3, [r7, #4]
 800166e:	681b      	ldr	r3, [r3, #0]
 8001670:	685b      	ldr	r3, [r3, #4]
 8001672:	2220      	movs	r2, #32
 8001674:	4013      	ands	r3, r2
 8001676:	d009      	beq.n	800168c <SPI_IRQ_Handling+0x68>
 8001678:	687b      	ldr	r3, [r7, #4]
 800167a:	681b      	ldr	r3, [r3, #0]
 800167c:	689b      	ldr	r3, [r3, #8]
 800167e:	2240      	movs	r2, #64	; 0x40
 8001680:	4013      	ands	r3, r2
 8001682:	d003      	beq.n	800168c <SPI_IRQ_Handling+0x68>
		SPI_OVR_handler(pSPIhandle);
 8001684:	687b      	ldr	r3, [r7, #4]
 8001686:	0018      	movs	r0, r3
 8001688:	f000 f898 	bl	80017bc <SPI_OVR_handler>
	//FRE. TI frame format error.
	//To be implemented when I use TI mode (it seems that TI and Motorola modes are related to SSPFSSOUT output, which many devices don't use).

	//CRCERR
	//To be implemented
}
 800168c:	46c0      	nop			; (mov r8, r8)
 800168e:	46bd      	mov	sp, r7
 8001690:	b002      	add	sp, #8
 8001692:	bd80      	pop	{r7, pc}

08001694 <SPI_TXE_handler>:

/*interrupt handlers*/
static void SPI_TXE_handler(SPI_Handle_t *pSPIhandle){
 8001694:	b580      	push	{r7, lr}
 8001696:	b082      	sub	sp, #8
 8001698:	af00      	add	r7, sp, #0
 800169a:	6078      	str	r0, [r7, #4]
	/*When transmission is enabled, a sequence begins and continues while any data is present in the TXFIFO of the master.*/
	//Let's limit it to 8 and 16 bits frame. Every char is 1 byte
	//Load the data into DR, move the pointer (buffer) and decrease length
	if (pSPIhandle->SPI_Config.SPI_DataSize == SPI_8BIT){
 800169c:	687b      	ldr	r3, [r7, #4]
 800169e:	79db      	ldrb	r3, [r3, #7]
 80016a0:	2b07      	cmp	r3, #7
 80016a2:	d111      	bne.n	80016c8 <SPI_TXE_handler+0x34>
		/*this sends 2 bytes <--pSPIhandle->pSPI->SPI_DR = *(pSPIhandle->SPI_Comm.TX_buffer);*/
		//data packing happens. it transmits 16-bit unless we cast into uint8_t
		*((uint8_t*)&pSPIhandle->pSPI->SPI_DR) = *(pSPIhandle->SPI_Comm.TX_buffer);
 80016a4:	687b      	ldr	r3, [r7, #4]
 80016a6:	691a      	ldr	r2, [r3, #16]
 80016a8:	687b      	ldr	r3, [r7, #4]
 80016aa:	681b      	ldr	r3, [r3, #0]
 80016ac:	330c      	adds	r3, #12
 80016ae:	7812      	ldrb	r2, [r2, #0]
 80016b0:	701a      	strb	r2, [r3, #0]
		pSPIhandle->SPI_Comm.TX_buffer++;
 80016b2:	687b      	ldr	r3, [r7, #4]
 80016b4:	691b      	ldr	r3, [r3, #16]
 80016b6:	1c5a      	adds	r2, r3, #1
 80016b8:	687b      	ldr	r3, [r7, #4]
 80016ba:	611a      	str	r2, [r3, #16]
		pSPIhandle->SPI_Comm.TX_length--;
 80016bc:	687b      	ldr	r3, [r7, #4]
 80016be:	68db      	ldr	r3, [r3, #12]
 80016c0:	1e5a      	subs	r2, r3, #1
 80016c2:	687b      	ldr	r3, [r7, #4]
 80016c4:	60da      	str	r2, [r3, #12]
 80016c6:	e013      	b.n	80016f0 <SPI_TXE_handler+0x5c>
	}
	else if (pSPIhandle->SPI_Config.SPI_DataSize == SPI_16BIT){
 80016c8:	687b      	ldr	r3, [r7, #4]
 80016ca:	79db      	ldrb	r3, [r3, #7]
 80016cc:	2b0f      	cmp	r3, #15
 80016ce:	d10f      	bne.n	80016f0 <SPI_TXE_handler+0x5c>
		//TX_buffer is defined as 8-bit.additional treatment is necessary
		pSPIhandle->pSPI->SPI_DR = *((uint16_t*)(pSPIhandle->SPI_Comm.TX_buffer));
 80016d0:	687b      	ldr	r3, [r7, #4]
 80016d2:	691b      	ldr	r3, [r3, #16]
 80016d4:	881a      	ldrh	r2, [r3, #0]
 80016d6:	687b      	ldr	r3, [r7, #4]
 80016d8:	681b      	ldr	r3, [r3, #0]
 80016da:	60da      	str	r2, [r3, #12]
		pSPIhandle->SPI_Comm.TX_buffer+=2;
 80016dc:	687b      	ldr	r3, [r7, #4]
 80016de:	691b      	ldr	r3, [r3, #16]
 80016e0:	1c9a      	adds	r2, r3, #2
 80016e2:	687b      	ldr	r3, [r7, #4]
 80016e4:	611a      	str	r2, [r3, #16]
		pSPIhandle->SPI_Comm.TX_length-=2;
 80016e6:	687b      	ldr	r3, [r7, #4]
 80016e8:	68db      	ldr	r3, [r3, #12]
 80016ea:	1e9a      	subs	r2, r3, #2
 80016ec:	687b      	ldr	r3, [r7, #4]
 80016ee:	60da      	str	r2, [r3, #12]
	}
	//(I don't use else because DS allows more lengths)

	//Close transmission when no more bytes in the buffer
	if (pSPIhandle->SPI_Comm.TX_length == 0){
 80016f0:	687b      	ldr	r3, [r7, #4]
 80016f2:	68db      	ldr	r3, [r3, #12]
 80016f4:	2b00      	cmp	r3, #0
 80016f6:	d112      	bne.n	800171e <SPI_TXE_handler+0x8a>
		pSPIhandle->pSPI->SPI_CR2 &= (~( 1 << SPI_CR2_TXEIE)); //disable the TX interrupt.It will be enabled by SPI_Send in the next sending
 80016f8:	687b      	ldr	r3, [r7, #4]
 80016fa:	681b      	ldr	r3, [r3, #0]
 80016fc:	685a      	ldr	r2, [r3, #4]
 80016fe:	687b      	ldr	r3, [r7, #4]
 8001700:	681b      	ldr	r3, [r3, #0]
 8001702:	2180      	movs	r1, #128	; 0x80
 8001704:	438a      	bics	r2, r1
 8001706:	605a      	str	r2, [r3, #4]
		pSPIhandle->SPI_Comm.TX_buffer = NULL; //null pointer
 8001708:	687b      	ldr	r3, [r7, #4]
 800170a:	2200      	movs	r2, #0
 800170c:	611a      	str	r2, [r3, #16]
		pSPIhandle->SPI_Comm.TX_state = SPI_READY; //important for loops in main!
 800170e:	687b      	ldr	r3, [r7, #4]
 8001710:	2200      	movs	r2, #0
 8001712:	751a      	strb	r2, [r3, #20]
		SPI_App_Callback(pSPIhandle,SPI_TX_FINISHED); //Inform the main application
 8001714:	687b      	ldr	r3, [r7, #4]
 8001716:	2101      	movs	r1, #1
 8001718:	0018      	movs	r0, r3
 800171a:	f000 f868 	bl	80017ee <SPI_App_Callback>
	}
}
 800171e:	46c0      	nop			; (mov r8, r8)
 8001720:	46bd      	mov	sp, r7
 8001722:	b002      	add	sp, #8
 8001724:	bd80      	pop	{r7, pc}

08001726 <SPI_RXNE_handler>:

static void SPI_RXNE_handler(SPI_Handle_t *pSPIhandle){
 8001726:	b580      	push	{r7, lr}
 8001728:	b082      	sub	sp, #8
 800172a:	af00      	add	r7, sp, #0
 800172c:	6078      	str	r0, [r7, #4]
	//Let's limit it to 8 and 16 bits frame. Every char is 1 byte
	//Load the data into DR, move the pointer (buffer) and decrease length
	if (pSPIhandle->SPI_Config.SPI_DataSize == SPI_8BIT){
 800172e:	687b      	ldr	r3, [r7, #4]
 8001730:	79db      	ldrb	r3, [r3, #7]
 8001732:	2b07      	cmp	r3, #7
 8001734:	d111      	bne.n	800175a <SPI_RXNE_handler+0x34>
		*(pSPIhandle->SPI_Comm.RX_buffer) = ((uint8_t)pSPIhandle->pSPI->SPI_DR) ;
 8001736:	687b      	ldr	r3, [r7, #4]
 8001738:	681b      	ldr	r3, [r3, #0]
 800173a:	68da      	ldr	r2, [r3, #12]
 800173c:	687b      	ldr	r3, [r7, #4]
 800173e:	69db      	ldr	r3, [r3, #28]
 8001740:	b2d2      	uxtb	r2, r2
 8001742:	701a      	strb	r2, [r3, #0]
		pSPIhandle->SPI_Comm.RX_buffer++;
 8001744:	687b      	ldr	r3, [r7, #4]
 8001746:	69db      	ldr	r3, [r3, #28]
 8001748:	1c5a      	adds	r2, r3, #1
 800174a:	687b      	ldr	r3, [r7, #4]
 800174c:	61da      	str	r2, [r3, #28]
		pSPIhandle->SPI_Comm.RX_length--;
 800174e:	687b      	ldr	r3, [r7, #4]
 8001750:	699b      	ldr	r3, [r3, #24]
 8001752:	1e5a      	subs	r2, r3, #1
 8001754:	687b      	ldr	r3, [r7, #4]
 8001756:	619a      	str	r2, [r3, #24]
 8001758:	e014      	b.n	8001784 <SPI_RXNE_handler+0x5e>
	}
	else if (pSPIhandle->SPI_Config.SPI_DataSize == SPI_16BIT){
 800175a:	687b      	ldr	r3, [r7, #4]
 800175c:	79db      	ldrb	r3, [r3, #7]
 800175e:	2b0f      	cmp	r3, #15
 8001760:	d110      	bne.n	8001784 <SPI_RXNE_handler+0x5e>
		//RX_buffer is defined as 8-bit.additional treatment is necessary
		*((uint16_t*)pSPIhandle->SPI_Comm.RX_buffer) = ((uint16_t)pSPIhandle->pSPI->SPI_DR) ;
 8001762:	687b      	ldr	r3, [r7, #4]
 8001764:	681b      	ldr	r3, [r3, #0]
 8001766:	68da      	ldr	r2, [r3, #12]
 8001768:	687b      	ldr	r3, [r7, #4]
 800176a:	69db      	ldr	r3, [r3, #28]
 800176c:	b292      	uxth	r2, r2
 800176e:	801a      	strh	r2, [r3, #0]
		pSPIhandle->SPI_Comm.RX_buffer+=2;
 8001770:	687b      	ldr	r3, [r7, #4]
 8001772:	69db      	ldr	r3, [r3, #28]
 8001774:	1c9a      	adds	r2, r3, #2
 8001776:	687b      	ldr	r3, [r7, #4]
 8001778:	61da      	str	r2, [r3, #28]
		pSPIhandle->SPI_Comm.RX_length-=2;
 800177a:	687b      	ldr	r3, [r7, #4]
 800177c:	699b      	ldr	r3, [r3, #24]
 800177e:	1e9a      	subs	r2, r3, #2
 8001780:	687b      	ldr	r3, [r7, #4]
 8001782:	619a      	str	r2, [r3, #24]
	}
	//(I don't use else because DS allows more lengths)

	//Close reception when no more bytes in the buffer
	if (pSPIhandle->SPI_Comm.RX_length == 0){
 8001784:	687b      	ldr	r3, [r7, #4]
 8001786:	699b      	ldr	r3, [r3, #24]
 8001788:	2b00      	cmp	r3, #0
 800178a:	d113      	bne.n	80017b4 <SPI_RXNE_handler+0x8e>
		pSPIhandle->pSPI->SPI_CR2 &= (~( 1 << SPI_CR2_RXNEIE)); //disable the RX interrupt.It will be enabled by SPI_Receive in the next sending
 800178c:	687b      	ldr	r3, [r7, #4]
 800178e:	681b      	ldr	r3, [r3, #0]
 8001790:	685a      	ldr	r2, [r3, #4]
 8001792:	687b      	ldr	r3, [r7, #4]
 8001794:	681b      	ldr	r3, [r3, #0]
 8001796:	2140      	movs	r1, #64	; 0x40
 8001798:	438a      	bics	r2, r1
 800179a:	605a      	str	r2, [r3, #4]
		pSPIhandle->SPI_Comm.RX_buffer = NULL; //null pointer
 800179c:	687b      	ldr	r3, [r7, #4]
 800179e:	2200      	movs	r2, #0
 80017a0:	61da      	str	r2, [r3, #28]
		pSPIhandle->SPI_Comm.RX_state = SPI_READY; //important for loops in main!
 80017a2:	687b      	ldr	r3, [r7, #4]
 80017a4:	2220      	movs	r2, #32
 80017a6:	2100      	movs	r1, #0
 80017a8:	5499      	strb	r1, [r3, r2]
		SPI_App_Callback(pSPIhandle,SPI_RX_FINISHED); //Inform the main application
 80017aa:	687b      	ldr	r3, [r7, #4]
 80017ac:	2102      	movs	r1, #2
 80017ae:	0018      	movs	r0, r3
 80017b0:	f000 f81d 	bl	80017ee <SPI_App_Callback>
	}
}
 80017b4:	46c0      	nop			; (mov r8, r8)
 80017b6:	46bd      	mov	sp, r7
 80017b8:	b002      	add	sp, #8
 80017ba:	bd80      	pop	{r7, pc}

080017bc <SPI_OVR_handler>:

static void SPI_OVR_handler(SPI_Handle_t *pSPIhandle){
 80017bc:	b580      	push	{r7, lr}
 80017be:	b084      	sub	sp, #16
 80017c0:	af00      	add	r7, sp, #0
 80017c2:	6078      	str	r0, [r7, #4]
	//Clearing OVR bit is done by a read access to the SPI_DR register followed by a read access to the SPI_SR register
	//if the error happens during transmission,as this error is related to RXFIFO,we won't clear it here. If so, the app will do it
	if (pSPIhandle->SPI_Comm.TX_state != SPI_DURING_TX){ //clear
 80017c4:	687b      	ldr	r3, [r7, #4]
 80017c6:	7d1b      	ldrb	r3, [r3, #20]
 80017c8:	2b01      	cmp	r3, #1
 80017ca:	d007      	beq.n	80017dc <SPI_OVR_handler+0x20>
		uint32_t reading; //maybe with uint8_t enough to read DR and SR?
		reading = pSPIhandle->pSPI->SPI_DR;
 80017cc:	687b      	ldr	r3, [r7, #4]
 80017ce:	681b      	ldr	r3, [r3, #0]
 80017d0:	68db      	ldr	r3, [r3, #12]
 80017d2:	60fb      	str	r3, [r7, #12]
		reading = pSPIhandle->pSPI->SPI_SR;
 80017d4:	687b      	ldr	r3, [r7, #4]
 80017d6:	681b      	ldr	r3, [r3, #0]
 80017d8:	689b      	ldr	r3, [r3, #8]
 80017da:	60fb      	str	r3, [r7, #12]
	}
	//inform the main application
	SPI_App_Callback(pSPIhandle,SPI_OVR_EVENT);
 80017dc:	687b      	ldr	r3, [r7, #4]
 80017de:	2103      	movs	r1, #3
 80017e0:	0018      	movs	r0, r3
 80017e2:	f000 f804 	bl	80017ee <SPI_App_Callback>
}
 80017e6:	46c0      	nop			; (mov r8, r8)
 80017e8:	46bd      	mov	sp, r7
 80017ea:	b004      	add	sp, #16
 80017ec:	bd80      	pop	{r7, pc}

080017ee <SPI_App_Callback>:
		pSPIhandle->pSPI->SPI_CR2 |= (1 << SPI_CR2_RXNEIE);//enable the RX interrupt to start reception
	}
}

/*Callback to application */
__attribute__((weak)) void SPI_App_Callback(SPI_Handle_t *pSPIhandle,uint8_t Event){
 80017ee:	b580      	push	{r7, lr}
 80017f0:	b082      	sub	sp, #8
 80017f2:	af00      	add	r7, sp, #0
 80017f4:	6078      	str	r0, [r7, #4]
 80017f6:	000a      	movs	r2, r1
 80017f8:	1cfb      	adds	r3, r7, #3
 80017fa:	701a      	strb	r2, [r3, #0]
	//This function will be implemented in every particular application. Thus, the weak attribute
}
 80017fc:	46c0      	nop			; (mov r8, r8)
 80017fe:	46bd      	mov	sp, r7
 8001800:	b002      	add	sp, #8
 8001802:	bd80      	pop	{r7, pc}

08001804 <__libc_init_array>:
 8001804:	b570      	push	{r4, r5, r6, lr}
 8001806:	2600      	movs	r6, #0
 8001808:	4d0c      	ldr	r5, [pc, #48]	; (800183c <__libc_init_array+0x38>)
 800180a:	4c0d      	ldr	r4, [pc, #52]	; (8001840 <__libc_init_array+0x3c>)
 800180c:	1b64      	subs	r4, r4, r5
 800180e:	10a4      	asrs	r4, r4, #2
 8001810:	42a6      	cmp	r6, r4
 8001812:	d109      	bne.n	8001828 <__libc_init_array+0x24>
 8001814:	2600      	movs	r6, #0
 8001816:	f000 f821 	bl	800185c <_init>
 800181a:	4d0a      	ldr	r5, [pc, #40]	; (8001844 <__libc_init_array+0x40>)
 800181c:	4c0a      	ldr	r4, [pc, #40]	; (8001848 <__libc_init_array+0x44>)
 800181e:	1b64      	subs	r4, r4, r5
 8001820:	10a4      	asrs	r4, r4, #2
 8001822:	42a6      	cmp	r6, r4
 8001824:	d105      	bne.n	8001832 <__libc_init_array+0x2e>
 8001826:	bd70      	pop	{r4, r5, r6, pc}
 8001828:	00b3      	lsls	r3, r6, #2
 800182a:	58eb      	ldr	r3, [r5, r3]
 800182c:	4798      	blx	r3
 800182e:	3601      	adds	r6, #1
 8001830:	e7ee      	b.n	8001810 <__libc_init_array+0xc>
 8001832:	00b3      	lsls	r3, r6, #2
 8001834:	58eb      	ldr	r3, [r5, r3]
 8001836:	4798      	blx	r3
 8001838:	3601      	adds	r6, #1
 800183a:	e7f2      	b.n	8001822 <__libc_init_array+0x1e>
 800183c:	08001874 	.word	0x08001874
 8001840:	08001874 	.word	0x08001874
 8001844:	08001874 	.word	0x08001874
 8001848:	08001878 	.word	0x08001878

0800184c <memset>:
 800184c:	0003      	movs	r3, r0
 800184e:	1882      	adds	r2, r0, r2
 8001850:	4293      	cmp	r3, r2
 8001852:	d100      	bne.n	8001856 <memset+0xa>
 8001854:	4770      	bx	lr
 8001856:	7019      	strb	r1, [r3, #0]
 8001858:	3301      	adds	r3, #1
 800185a:	e7f9      	b.n	8001850 <memset+0x4>

0800185c <_init>:
 800185c:	b5f8      	push	{r3, r4, r5, r6, r7, lr}
 800185e:	46c0      	nop			; (mov r8, r8)
 8001860:	bcf8      	pop	{r3, r4, r5, r6, r7}
 8001862:	bc08      	pop	{r3}
 8001864:	469e      	mov	lr, r3
 8001866:	4770      	bx	lr

08001868 <_fini>:
 8001868:	b5f8      	push	{r3, r4, r5, r6, r7, lr}
 800186a:	46c0      	nop			; (mov r8, r8)
 800186c:	bcf8      	pop	{r3, r4, r5, r6, r7}
 800186e:	bc08      	pop	{r3}
 8001870:	469e      	mov	lr, r3
 8001872:	4770      	bx	lr
